
NIOSAPP.elf:     file format elf32-littlenios2
NIOSAPP.elf
architecture: nios2, flags 0x00000112:
EXEC_P, HAS_SYMS, D_PAGED
start address 0x00210150

Program Header:
    LOAD off    0x00001000 vaddr 0x00210000 paddr 0x00210000 align 2**12
         filesz 0x00000020 memsz 0x00000020 flags r-x
    LOAD off    0x00001020 vaddr 0x00210020 paddr 0x00210020 align 2**12
         filesz 0x0000b8ec memsz 0x0000b8ec flags r-x
    LOAD off    0x0000c90c vaddr 0x0021b90c paddr 0x0021bc3c align 2**12
         filesz 0x00000330 memsz 0x00000330 flags rw-
    LOAD off    0x0000cf6c vaddr 0x0021bf6c paddr 0x0021bf6c align 2**12
         filesz 0x00000000 memsz 0x00000384 flags rw-

Sections:
Idx Name          Size      VMA       LMA       File off  Algn
  0 .entry        00000020  00210000  00210000  00001000  2**5
                  CONTENTS, ALLOC, LOAD, READONLY, CODE
  1 .exceptions   00000130  00210020  00210020  00001020  2**2
                  CONTENTS, ALLOC, LOAD, READONLY, CODE
  2 .text         0000b55c  00210150  00210150  00001150  2**2
                  CONTENTS, ALLOC, LOAD, READONLY, CODE
  3 .rodata       00000260  0021b6ac  0021b6ac  0000c6ac  2**2
                  CONTENTS, ALLOC, LOAD, READONLY, DATA
  4 .rwdata       00000330  0021b90c  0021bc3c  0000c90c  2**2
                  CONTENTS, ALLOC, LOAD, DATA, SMALL_DATA
  5 .bss          00000384  0021bf6c  0021bf6c  0000cf6c  2**2
                  ALLOC, SMALL_DATA
  6 .comment      00000023  00000000  00000000  0000cc3c  2**0
                  CONTENTS, READONLY
  7 .debug_aranges 00000568  00000000  00000000  0000cc60  2**3
                  CONTENTS, READONLY, DEBUGGING
  8 .debug_info   0000fce5  00000000  00000000  0000d1c8  2**0
                  CONTENTS, READONLY, DEBUGGING
  9 .debug_abbrev 00002f4c  00000000  00000000  0001cead  2**0
                  CONTENTS, READONLY, DEBUGGING
 10 .debug_line   0000522b  00000000  00000000  0001fdf9  2**0
                  CONTENTS, READONLY, DEBUGGING
 11 .debug_frame  00000e00  00000000  00000000  00025024  2**2
                  CONTENTS, READONLY, DEBUGGING
 12 .debug_str    000021e8  00000000  00000000  00025e24  2**0
                  CONTENTS, READONLY, DEBUGGING
 13 .debug_loc    0000f43c  00000000  00000000  0002800c  2**0
                  CONTENTS, READONLY, DEBUGGING
 14 .debug_alt_sim_info 00000010  00000000  00000000  00037448  2**2
                  CONTENTS, READONLY, DEBUGGING
 15 .debug_ranges 00002568  00000000  00000000  00037458  2**3
                  CONTENTS, READONLY, DEBUGGING
 16 .thread_model 00000003  00000000  00000000  0003bce2  2**0
                  CONTENTS, READONLY
 17 .cpu          00000003  00000000  00000000  0003bce5  2**0
                  CONTENTS, READONLY
 18 .qsys         00000001  00000000  00000000  0003bce8  2**0
                  CONTENTS, READONLY
 19 .simulation_enabled 00000001  00000000  00000000  0003bce9  2**0
                  CONTENTS, READONLY
 20 .sysid_hash   00000004  00000000  00000000  0003bcea  2**0
                  CONTENTS, READONLY
 21 .sysid_base   00000004  00000000  00000000  0003bcee  2**0
                  CONTENTS, READONLY
 22 .sysid_time   00000004  00000000  00000000  0003bcf2  2**0
                  CONTENTS, READONLY
 23 .stderr_dev   00000009  00000000  00000000  0003bcf6  2**0
                  CONTENTS, READONLY
 24 .stdin_dev    00000009  00000000  00000000  0003bcff  2**0
                  CONTENTS, READONLY
 25 .stdout_dev   00000009  00000000  00000000  0003bd08  2**0
                  CONTENTS, READONLY
 26 .sopc_system_name 00000004  00000000  00000000  0003bd11  2**0
                  CONTENTS, READONLY
 27 .quartus_project_dir 00000020  00000000  00000000  0003bd15  2**0
                  CONTENTS, READONLY
 28 .sopcinfo     000eaa00  00000000  00000000  0003bd35  2**0
                  CONTENTS, READONLY
SYMBOL TABLE:
00210000 l    d  .entry	00000000 .entry
00210020 l    d  .exceptions	00000000 .exceptions
00210150 l    d  .text	00000000 .text
0021b6ac l    d  .rodata	00000000 .rodata
0021b90c l    d  .rwdata	00000000 .rwdata
0021bf6c l    d  .bss	00000000 .bss
00000000 l    d  .comment	00000000 .comment
00000000 l    d  .debug_aranges	00000000 .debug_aranges
00000000 l    d  .debug_info	00000000 .debug_info
00000000 l    d  .debug_abbrev	00000000 .debug_abbrev
00000000 l    d  .debug_line	00000000 .debug_line
00000000 l    d  .debug_frame	00000000 .debug_frame
00000000 l    d  .debug_str	00000000 .debug_str
00000000 l    d  .debug_loc	00000000 .debug_loc
00000000 l    d  .debug_alt_sim_info	00000000 .debug_alt_sim_info
00000000 l    d  .debug_ranges	00000000 .debug_ranges
00000000 l    df *ABS*	00000000 ../NIOSAPP_bsp//obj/HAL/src/crt0.o
00210188 l       .text	00000000 alt_after_alt_main
00000000 l    df *ABS*	00000000 alt_exception_entry.o
00210094 l       .exceptions	00000000 alt_exception_unknown
00000000 l    df *ABS*	00000000 alt_irq_handler.c
00000000 l    df *ABS*	00000000 diskio.c
0021018c l     F .text	00000064 wait_ready
002101f0 l     F .text	000003a0 send_cmd
0021bbe8 l     O .rwdata	00000001 Stat
0021bf6c l     O .bss	00000001 CardType
00000000 l    df *ABS*	00000000 ff.c
00210d2c l     F .text	00000080 get_ldnumber
00210dac l     F .text	00000070 validate
00210e1c l     F .text	00000034 st_clust.isra.1
00210e50 l     F .text	000000e0 get_fileinfo.part.3
00210f30 l     F .text	000000a0 sync_window.part.4
00210fd0 l     F .text	000000a0 move_window
00211070 l     F .text	000001a0 get_fat
00211210 l     F .text	00000194 check_fs.part.7
002113a4 l     F .text	000001d8 put_fat
0021157c l     F .text	000001dc create_chain
00211758 l     F .text	00000104 remove_chain
0021185c l     F .text	00000100 dir_sdi.constprop.12
0021195c l     F .text	00000144 sync_fs
00211aa0 l     F .text	000000ec dir_clear
00211b8c l     F .text	00000170 dir_next
00211cfc l     F .text	000003fc follow_path
002120f8 l     F .text	000000d8 dir_read.constprop.10
002121d0 l     F .text	00000144 dir_register
00212314 l     F .text	000005c4 mount_volume
0021bf70 l     O .bss	00000004 FatFs
0021bf74 l     O .bss	00000002 Fsid
00000000 l    df *ABS*	00000000 ffsystem.c
00000000 l    df *ABS*	00000000 ffunicode.c
00000000 l    df *ABS*	00000000 main.c
002142ac l     F .text	00000024 mount_sd_isr
002142d0 l     F .text	00000024 state_key_isr
002142f4 l     F .text	00000024 tick_isr
00214318 l     F .text	00000078 bgm_init_from_sd
0021b7f7 l     O .rodata	000000f8 TREE_TEMPLATE
0021bc14 l     O .rwdata	00000001 last_action_keys
00000000 l    df *ABS*	00000000 lib2-divmod.c
0021a228 l     F .text	00000074 udivmodsi4
00000000 l    df *ABS*	00000000 lib2-mul.c
00000000 l    df *ABS*	00000000 memcmp.c
00000000 l    df *ABS*	00000000 memcpy.c
00000000 l    df *ABS*	00000000 memset.c
00000000 l    df *ABS*	00000000 sprintf.c
00000000 l    df *ABS*	00000000 strchr.c
00000000 l    df *ABS*	00000000 vfprintf.c
00000000 l    df *ABS*	00000000 fvwrite_small_str.c
00000000 l    df *ABS*	00000000 impure.c
0021b934 l     O .rwdata	000000e0 impure_data
00000000 l    df *ABS*	00000000 memmove.c
00000000 l    df *ABS*	00000000 strlen.c
00000000 l    df *ABS*	00000000 alt_iic.c
00000000 l    df *ABS*	00000000 alt_iic_isr_register.c
00000000 l    df *ABS*	00000000 alt_irq_vars.c
00000000 l    df *ABS*	00000000 alt_load.c
00000000 l    df *ABS*	00000000 alt_main.c
00000000 l    df *ABS*	00000000 alt_sys_init.c
0021ba14 l     O .rwdata	0000002c jtag_uart
00000000 l    df *ABS*	00000000 altera_avalon_jtag_uart_fd.c
00000000 l    df *ABS*	00000000 altera_avalon_jtag_uart_read.c
00000000 l    df *ABS*	00000000 altera_avalon_jtag_uart_write.c
00000000 l    df *ABS*	00000000 alt_dcache_flush_all.c
00000000 l    df *ABS*	00000000 alt_dev.c
0021b134 l     F .text	00000008 alt_dev_null_write
00000000 l    df *ABS*	00000000 alt_dev_llist_insert.c
00000000 l    df *ABS*	00000000 alt_errno.c
00000000 l    df *ABS*	00000000 alt_icache_flush_all.c
00000000 l    df *ABS*	00000000 alt_io_redirect.c
0021b1ac l     F .text	00000088 alt_open_fd.constprop.0
00000000 l    df *ABS*	00000000 alt_open.c
00000000 l    df *ABS*	00000000 alt_release_fd.c
00000000 l    df *ABS*	00000000 altera_nios2_qsys_irq.c
00000000 l    df *ABS*	00000000 alt_find_dev.c
00000000 l    df *ABS*	00000000 alt_find_file.c
00000000 l    df *ABS*	00000000 alt_get_fd.c
00000000 l    df *ABS*	00000000 int_errno.c
00000000 l    df *ABS*	00000000 
0021795c g     F .text	0000004c RemoveMapSave
002143c4 g     F .text	00000090 printVGA
0021bfa4 g     O .bss	0000000a g_input
00224000 g       *ABS*	00000000 __alt_mem_INV_DELTA
00229000 g       *ABS*	00000000 __alt_mem_COS_TABLE
00217dd8 g     F .text	0000023c LoadMapFromSD
0021b010 g     F .text	00000040 alt_main
0021c1f0 g     O .bss	00000100 alt_irq
0021bc3c g       *ABS*	00000000 __flash_rwdata_start
0021bf85 g     O .bss	00000001 game_tick
002160bc g     F .text	000000cc placeTree
00217864 g     F .text	00000088 handleActionKeys
0021bbf8 g     O .rwdata	00000004 inv_delta_ptr
0021ad74 g     F .text	0000005c memmove
0021bf8c g     O .bss	00000001 bgm_ctrl
0021bc00 g     O .rwdata	00000004 bridge_ptr
00000000  w      *UND*	00000000 __errno
0021aca0 g     F .text	000000d4 __sfvwrite_small_str
00210000 g     F .entry	0000000c __reset
00214a48 g     F .text	000001a4 breakBlockAction
00210020 g       *ABS*	00000000 __flash_exceptions_start
0021bfa0 g     O .bss	00000004 errno
0021bbfc g     O .rwdata	00000004 vga_text_ptr
0021bf88 g     O .bss	00000004 bgm_ctrl_time
0021bf98 g     O .bss	00000004 alt_argv
00223be8 g       *ABS*	00000000 _gp
0021b90c g     O .rwdata	00000027 player
0021bfb0 g     O .bss	00000230 fs
0021ba40 g     O .rwdata	00000180 alt_fd_list
0021b4ac g     F .text	00000094 alt_find_dev
0021a3c8 g     F .text	00000028 memcpy
0021b234 g     F .text	00000078 alt_io_redirect
002105a8 g     F .text	000002c8 disk_initialize
00214064 g     F .text	00000248 f_rename
0021663c g     F .text	00000418 genMap
0021b0a4 g     F .text	00000058 altera_avalon_jtag_uart_read
0021a348 g     F .text	00000008 __udivsi3
002143a0 g     F .text	00000024 clearVGAText
00210590 g     F .text	00000018 disk_status
00213ba8 g     F .text	00000174 f_truncate
00213854 g     F .text	00000030 f_closedir
0021bf84 g     O .bss	00000001 stop_game
00210cb0 g     F .text	0000007c disk_ioctl
0021bc24 g     O .rwdata	00000004 alt_max_fd
00229880 g       *ABS*	00000000 __alt_mem_BLOCK_INFO
00216188 g     F .text	00000354 noise_1
0021bc18 g     O .rwdata	00000004 _global_impure_ptr
0021c1e0 g     O .bss	00000010 lastHit
0021c2f0 g       *ABS*	00000000 __bss_end
0021ae94 g     F .text	00000068 alt_iic_isr_register
0021810c g     F .text	00000044 init_tick_interrupt
00213d1c g     F .text	00000140 f_unlink
0021ae7c g     F .text	00000018 alt_ic_irq_enabled
0021bf86 g     O .bss	00000001 state
0021bf90 g     O .bss	00000004 alt_irq_active
002100ec g     F .exceptions	00000064 alt_irq_handler
0021bbc0 g     O .rwdata	00000028 alt_dev_null
0021bc10 g     O .rwdata	00000004 cos_table_ptr
0021b130 g     F .text	00000004 alt_dcache_flush_all
0021bc3c g       *ABS*	00000000 __ram_rwdata_end
0021bc04 g     O .rwdata	00000004 sram_16_ptr
002144a4 g     F .text	000003c8 castRay
0021bc28 g     O .rwdata	00000008 alt_dev_list
002164dc g     F .text	00000160 noise_2
0021b90c g       *ABS*	00000000 __ram_rodata_end
0021a350 g     F .text	00000008 __umodsi3
0021c2f0 g       *ABS*	00000000 end
00220000 g       *ABS*	00000000 __alt_stack_pointer
0021b0fc g     F .text	00000034 altera_avalon_jtag_uart_write
0021a548 g     F .text	00000734 ___vfprintf_internal_r
0021a410 g     F .text	00000068 _sprintf_r
0021343c g     F .text	0000004c f_close
00210150 g     F .text	0000003c _start
0021b070 g     F .text	00000014 alt_sys_init
0021bf7c g     O .bss	00000004 bgm_cooldown_duration
00212d40 g     F .text	000002b4 f_read
00213884 g     F .text	000000bc f_readdir
0021a358 g     F .text	00000028 __mulsi3
0021b90c g       *ABS*	00000000 __ram_rwdata_start
0021b6ac g       *ABS*	00000000 __ram_rodata_start
0021b084 g     F .text	00000010 altera_avalon_jtag_uart_read_fd
0021b5ec g     F .text	000000c0 alt_get_fd
00216bd4 g     F .text	0000065c movePlayer
00229800 g       *ABS*	00000000 __alt_mem_VGA_TEXT
0021a380 g     F .text	00000048 memcmp
0021c2f0 g       *ABS*	00000000 __alt_stack_base
0021486c g     F .text	000001dc checkHitAABB
0021b540 g     F .text	000000ac alt_find_file
0021b13c g     F .text	0000006c alt_dev_llist_insert
0021bf6c g       *ABS*	00000000 __bss_start
0021a3f0 g     F .text	00000020 memset
002181e0 g     F .text	00002048 main
0021bf94 g     O .bss	00000004 alt_envp
0021b094 g     F .text	00000010 altera_avalon_jtag_uart_write_fd
00213324 g     F .text	00000118 f_sync
0021bc38 g     O .rwdata	00000004 alt_errno
002128d8 g     F .text	000000b4 f_mount
0021375c g     F .text	000000f8 f_opendir
00214390 g     F .text	00000010 getKeyboard
0021a29c g     F .text	00000050 __divsi3
0021b6ac g       *ABS*	00000000 __flash_rodata_start
0021bc08 g     O .rwdata	00000004 sram_8_ptr
0021b050 g     F .text	00000020 alt_irq_init
0021b46c g     F .text	00000038 alt_release_fd
00213488 g     F .text	000002d4 f_lseek
0021a478 g     F .text	0000007c sprintf
0021514c g     F .text	00000950 waterSim
0021bbec g     O .rwdata	00000001 mount_sd
00217230 g     F .text	00000634 updatePlayerLogic
002178ec g     F .text	00000070 SaveMapExist
0021bc1c g     O .rwdata	00000004 _impure_ptr
0021bbf4 g     O .rwdata	00000004 block_info_ptr
0021bf9c g     O .bss	00000004 alt_argc
0021bf8d g     O .bss	00000001 SD_inited
00210020 g       .exceptions	00000000 alt_irq_entry
0021bf79 g     O .bss	00000001 bgm_in_cooldown
00218014 g     F .text	000000f8 update_inputs
00213940 g     F .text	00000088 f_stat
0021bc30 g     O .rwdata	00000008 alt_fs_list
0021bbf0 g     O .rwdata	00000004 bgm_ram_ptr
00218198 g     F .text	00000048 init_mount_sd_interrupt
00210020 g       *ABS*	00000000 __ram_exceptions_start
00210000 g       *ABS*	00000000 __alt_mem_onchip_memory2
0021adf8 g     F .text	00000004 alt_ic_isr_register
0021bc3c g       *ABS*	00000000 _edata
0021c2f0 g       *ABS*	00000000 _end
00210150 g       *ABS*	00000000 __ram_exceptions_end
00212ff4 g     F .text	00000330 f_write
00216a54 g     F .text	00000180 genMapFlat
0021ae3c g     F .text	00000040 alt_ic_irq_disable
0021298c g     F .text	000003b4 f_open
00210a64 g     F .text	0000024c disk_write
0021b4a4 g     F .text	00000008 altera_nios2_qsys_irq_init
00215a9c g     F .text	00000620 calcPlayStatus
00214bec g     F .text	00000560 placeBlockAction
0021a2ec g     F .text	0000005c __modsi3
00220000 g       *ABS*	00000000 __alt_data_end
00210020 g     F .exceptions	00000000 alt_exception
0021bc0c g     O .rwdata	00000004 lfsr32
00213e5c g     F .text	00000208 f_mkdir
0021000c g       .entry	00000000 _exit
0021add0 g     F .text	00000028 strlen
00210870 g     F .text	000001f4 disk_read
0021b2ac g     F .text	000001c0 open
0021b1a8 g     F .text	00000004 alt_icache_flush_all
0021a4f4 g     F .text	00000054 strchr
002139c8 g     F .text	000001e0 f_getfree
0021bc20 g     O .rwdata	00000004 alt_priority_mask
0021adfc g     F .text	00000040 alt_ic_irq_enable
0021ac7c g     F .text	00000024 __vfprintf_internal
00218150 g     F .text	00000048 init_state_key_interrupt
0021bf80 g     O .bss	00000004 bgm_cooldown_start
002179a8 g     F .text	00000430 SaveMapToSD
00214454 g     F .text	00000050 printVGAChar
0021aefc g     F .text	00000114 alt_load
0021bf78 g     O .bss	00000001 current_game_song
00220000 g       *ABS*	00000000 __alt_mem_BGM



Disassembly of section .entry:

00210000 <__reset>:
 * Jump to the _start entry point in the .text section if reset code
 * is allowed or if optimizing for RTL simulation.
 */
#if defined(ALT_ALLOW_CODE_AT_RESET) || defined(ALT_SIM_OPTIMIZE)
    /* Jump to the _start entry point in the .text section. */
    movhi r1, %hi(_start)
  210000:	00400874 	movhi	at,33
    ori r1, r1, %lo(_start)
  210004:	08405414 	ori	at,at,336
    jmp r1
  210008:	0800683a 	jmp	at

0021000c <_exit>:
	...

Disassembly of section .exceptions:

00210020 <alt_exception>:

#else /* ALT_EXCEPTION_STACK disabled */
        /* 
         * Reserve space on normal stack for registers about to be pushed.
         */
        addi  sp, sp, -76
  210020:	deffed04 	addi	sp,sp,-76
         * documentation for details).
         *
         * Leave a gap in the stack frame at 4(sp) for the muldiv handler to
         * store zero into.
         */
        stw   ra,  0(sp)
  210024:	dfc00015 	stw	ra,0(sp)
        stw   r1,   8(sp)
  210028:	d8400215 	stw	at,8(sp)
        stw   r2,  12(sp)
  21002c:	d8800315 	stw	r2,12(sp)
        stw   r3,  16(sp)
  210030:	d8c00415 	stw	r3,16(sp)
        stw   r4,  20(sp)
  210034:	d9000515 	stw	r4,20(sp)
        stw   r5,  24(sp)
  210038:	d9400615 	stw	r5,24(sp)
        stw   r6,  28(sp)
  21003c:	d9800715 	stw	r6,28(sp)
        stw   r7,  32(sp)
  210040:	d9c00815 	stw	r7,32(sp)
        rdctl r5, estatus   /* Read early to avoid usage stall */
  210044:	000b307a 	rdctl	r5,estatus
        stw   r8,  36(sp)
  210048:	da000915 	stw	r8,36(sp)
        stw   r9,  40(sp)
  21004c:	da400a15 	stw	r9,40(sp)
        stw   r10, 44(sp)
  210050:	da800b15 	stw	r10,44(sp)
        stw   r11, 48(sp)
  210054:	dac00c15 	stw	r11,48(sp)
        stw   r12, 52(sp)
  210058:	db000d15 	stw	r12,52(sp)
        stw   r13, 56(sp)
  21005c:	db400e15 	stw	r13,56(sp)
        stw   r14, 60(sp)
  210060:	db800f15 	stw	r14,60(sp)
        stw   r15, 64(sp)
  210064:	dbc01015 	stw	r15,64(sp)
        /*
         * ea-4 contains the address of the instruction being executed
         * when the exception occured. For interrupt exceptions, we will
         * will be re-issue the isntruction. Store it in 72(sp)
         */
        stw   r5,  68(sp)  /* estatus */
  210068:	d9401115 	stw	r5,68(sp)
        addi  r15, ea, -4  /* instruction that caused exception */
  21006c:	ebffff04 	addi	r15,ea,-4
        stw   r15,  72(sp)
  210070:	dbc01215 	stw	r15,72(sp)
#else
        /*
         * Test to see if the exception was a software exception or caused 
         * by an external interrupt, and vector accordingly.
         */
        rdctl r4, ipending
  210074:	0009313a 	rdctl	r4,ipending
        andi  r2, r5, 1
  210078:	2880004c 	andi	r2,r5,1
        beq   r2, zero, .Lnot_irq
  21007c:	10000326 	beq	r2,zero,21008c <alt_exception+0x6c>
        beq   r4, zero, .Lnot_irq
  210080:	20000226 	beq	r4,zero,21008c <alt_exception+0x6c>
        /*
         * Now that all necessary registers have been preserved, call 
         * alt_irq_handler() to process the interrupts.
         */

        call alt_irq_handler
  210084:	02100ec0 	call	2100ec <alt_irq_handler>

        .section .exceptions.irqreturn, "xa"

        br    .Lexception_exit
  210088:	00000306 	br	210098 <alt_exception_unknown+0x4>
         * upon completion, so we write ea (address of instruction *after*
         * the one where the exception occured) into 72(sp). The actual
         * instruction that caused the exception is written in r2, which these
         * handlers will utilize.
         */
        stw   ea,  72(sp)  /* Don't re-issue */
  21008c:	df401215 	stw	ea,72(sp)
        ldw   r2, -4(ea)   /* Instruction that caused exception */
  210090:	e8bfff17 	ldw	r2,-4(ea)

00210094 <alt_exception_unknown>:
#ifdef NIOS2_HAS_DEBUG_STUB
       /*
        *  Either tell the user now (if there is a debugger attached) or go into
        *  the debug monitor which will loop until a debugger is attached.
        */
        break
  210094:	003da03a 	break	0
        /* 
         * Restore the saved registers, so that all general purpose registers 
         * have been restored to their state at the time the interrupt occured.
         */

        ldw   r5,  68(sp)
  210098:	d9401117 	ldw	r5,68(sp)
        ldw   ea,  72(sp)  /* This becomes the PC once eret is executed */
  21009c:	df401217 	ldw	ea,72(sp)
        ldw   ra,   0(sp)
  2100a0:	dfc00017 	ldw	ra,0(sp)

        wrctl estatus, r5
  2100a4:	2801707a 	wrctl	estatus,r5

        ldw   r1,   8(sp)
  2100a8:	d8400217 	ldw	at,8(sp)
        ldw   r2,  12(sp)
  2100ac:	d8800317 	ldw	r2,12(sp)
        ldw   r3,  16(sp)
  2100b0:	d8c00417 	ldw	r3,16(sp)
        ldw   r4,  20(sp)
  2100b4:	d9000517 	ldw	r4,20(sp)
        ldw   r5,  24(sp)
  2100b8:	d9400617 	ldw	r5,24(sp)
        ldw   r6,  28(sp)
  2100bc:	d9800717 	ldw	r6,28(sp)
        ldw   r7,  32(sp)
  2100c0:	d9c00817 	ldw	r7,32(sp)

#if defined(ALT_EXCEPTION_STACK) && defined(ALT_STACK_CHECK)
        ldw   et, %gprel(alt_exception_old_stack_limit)(gp)
#endif

        ldw   r8,  36(sp)
  2100c4:	da000917 	ldw	r8,36(sp)
        ldw   r9,  40(sp)
  2100c8:	da400a17 	ldw	r9,40(sp)
        ldw   r10, 44(sp)
  2100cc:	da800b17 	ldw	r10,44(sp)
        ldw   r11, 48(sp)
  2100d0:	dac00c17 	ldw	r11,48(sp)
        ldw   r12, 52(sp)
  2100d4:	db000d17 	ldw	r12,52(sp)
        ldw   r13, 56(sp)
  2100d8:	db400e17 	ldw	r13,56(sp)
        ldw   r14, 60(sp)
  2100dc:	db800f17 	ldw	r14,60(sp)
        ldw   r15, 64(sp)
  2100e0:	dbc01017 	ldw	r15,64(sp)
        stw   et, %gprel(alt_stack_limit_value)(gp)
        stw   zero, %gprel(alt_exception_old_stack_limit)(gp)
#endif /* ALT_STACK_CHECK */
        ldw   sp,  76(sp)
#else /* ALT_EXCEPTION_STACK disabled */
        addi  sp, sp, 76
  2100e4:	dec01304 	addi	sp,sp,76

        /*
         * Return to the interrupted instruction.
         */

        eret
  2100e8:	ef80083a 	eret

002100ec <alt_irq_handler>:
 * instruction is present if the macro ALT_CI_INTERRUPT_VECTOR defined.
 */

void alt_irq_handler (void) __attribute__ ((section (".exceptions")));
void alt_irq_handler (void)
{
  2100ec:	defffe04 	addi	sp,sp,-8
  2100f0:	dfc00115 	stw	ra,4(sp)
  2100f4:	dc000015 	stw	r16,0(sp)
#ifndef NIOS2_EIC_PRESENT
static ALT_INLINE alt_u32 ALT_ALWAYS_INLINE alt_irq_pending (void)
{
  alt_u32 active;

  NIOS2_READ_IPENDING (active);
  2100f8:	000b313a 	rdctl	r5,ipending
  2100fc:	040008b4 	movhi	r16,34
  210100:	84307c04 	addi	r16,r16,-15888
     * called to clear the interrupt condition.
     */

    do
    {
      if (active & mask)
  210104:	2880004c 	andi	r2,r5,1

  active = alt_irq_pending ();

  do
  {
    i = 0;
  210108:	0007883a 	mov	r3,zero
     * called to clear the interrupt condition.
     */

    do
    {
      if (active & mask)
  21010c:	1000051e 	bne	r2,zero,210124 <alt_irq_handler+0x38>
  210110:	00800044 	movi	r2,1
#else
        alt_irq[i].handler(alt_irq[i].context, i); 
#endif
        break;
      }
      mask <<= 1;
  210114:	1085883a 	add	r2,r2,r2
     * called to clear the interrupt condition.
     */

    do
    {
      if (active & mask)
  210118:	2888703a 	and	r4,r5,r2
        alt_irq[i].handler(alt_irq[i].context, i); 
#endif
        break;
      }
      mask <<= 1;
      i++;
  21011c:	18c00044 	addi	r3,r3,1
     * called to clear the interrupt condition.
     */

    do
    {
      if (active & mask)
  210120:	203ffc26 	beq	r4,zero,210114 <alt_irq_handler+0x28>
      { 
#ifdef ALT_ENHANCED_INTERRUPT_API_PRESENT
        alt_irq[i].handler(alt_irq[i].context); 
  210124:	180690fa 	slli	r3,r3,3
  210128:	80c7883a 	add	r3,r16,r3
  21012c:	18800017 	ldw	r2,0(r3)
  210130:	19000117 	ldw	r4,4(r3)
  210134:	103ee83a 	callr	r2
  210138:	000b313a 	rdctl	r5,ipending

    } while (1);

    active = alt_irq_pending ();
    
  } while (active);
  21013c:	283ff11e 	bne	r5,zero,210104 <alt_irq_handler+0x18>
  /*
   * Notify the operating system that interrupt processing is complete.
   */ 

  ALT_OS_INT_EXIT();
}
  210140:	dfc00117 	ldw	ra,4(sp)
  210144:	dc000017 	ldw	r16,0(sp)
  210148:	dec00204 	addi	sp,sp,8
  21014c:	f800283a 	ret

Disassembly of section .text:

00210150 <_start>:

    /*
     * Now that the caches are initialized, set up the stack pointer and global pointer.
     * The values provided by the linker are assumed to be correctly aligned.
     */
    movhi sp, %hi(__alt_stack_pointer)
  210150:	06c008b4 	movhi	sp,34
    ori sp, sp, %lo(__alt_stack_pointer)
  210154:	dec00014 	ori	sp,sp,0
    movhi gp, %hi(_gp)
  210158:	068008b4 	movhi	gp,34
    ori gp, gp, %lo(_gp)
  21015c:	d68efa14 	ori	gp,gp,15336
 */
#ifndef ALT_SIM_OPTIMIZE
    /* Log that the BSS is about to be cleared. */
    ALT_LOG_PUTS(alt_log_msg_bss)

    movhi r2, %hi(__bss_start)
  210160:	00800874 	movhi	r2,33
    ori r2, r2, %lo(__bss_start)
  210164:	10afdb14 	ori	r2,r2,49004

    movhi r3, %hi(__bss_end)
  210168:	00c00874 	movhi	r3,33
    ori r3, r3, %lo(__bss_end)
  21016c:	18f0bc14 	ori	r3,r3,49904

    beq r2, r3, 1f
  210170:	10c00326 	beq	r2,r3,210180 <_start+0x30>

0:
    stw zero, (r2)
  210174:	10000015 	stw	zero,0(r2)
    addi r2, r2, 4
  210178:	10800104 	addi	r2,r2,4
    bltu r2, r3, 0b
  21017c:	10fffd36 	bltu	r2,r3,210174 <_start+0x24>
     * section aren't defined until alt_load() has been called).
     */
    mov   et, zero
#endif

    call alt_load
  210180:	021aefc0 	call	21aefc <alt_load>

    /* Log that alt_main is about to be called. */
    ALT_LOG_PUTS(alt_log_msg_alt_main)

    /* Call the C entry point. It should never return. */
    call alt_main
  210184:	021b0100 	call	21b010 <alt_main>

00210188 <alt_after_alt_main>:

    /* Wait in infinite loop in case alt_main does return. */
alt_after_alt_main:
    br alt_after_alt_main
  210188:	003fff06 	br	210188 <alt_after_alt_main>

0021018c <wait_ready>:

static volatile DSTATUS Stat = STA_NOINIT; /* 磁碟狀態 */
static BYTE CardType; /* SD 卡類型 b0:MMC, b1:SDv1, b2:SDv2, b3:Block addressing */

// 等待 SD 卡準備好
static int wait_ready (void) {
  21018c:	01001334 	movhi	r4,76
  210190:	2112d004 	addi	r4,r4,19264
#define CS_HIGH()   IOWR_ALTERA_AVALON_SPI_SLAVE_SEL(SD_SPI_BASE, 0)

// 發送並接收 1 個 Byte
static BYTE xchg_spi (BYTE dat) {
    // 1. 等待 TX 準備好：確保 SPI 的發送區有空位 (避免資料覆蓋 Overrun)
    while ((IORD_ALTERA_AVALON_SPI_STATUS(SD_SPI_BASE) & ALTERA_AVALON_SPI_STATUS_TRDY_MSK) == 0);
  210194:	008008f4 	movhi	r2,35
  210198:	10a64204 	addi	r2,r2,-26360

    // 2. 寫入 TX，啟動硬體時脈傳輸
    IOWR_ALTERA_AVALON_SPI_TXDATA(SD_SPI_BASE, dat);
  21019c:	01403fc4 	movi	r5,255
  2101a0:	01c008f4 	movhi	r7,35
  2101a4:	39e64104 	addi	r7,r7,-26364
    
    // 3. 等待 RX 準備好：確保 8 個 Clock 確實跑完，且收到 SD 卡的回傳
    while ((IORD_ALTERA_AVALON_SPI_STATUS(SD_SPI_BASE) & ALTERA_AVALON_SPI_STATUS_RRDY_MSK) == 0);
    
    // 4. 讀取 RX 暫存器 (這會自動清除 RRDY 旗標，迎接下一個 Byte)
    return (BYTE)IORD_ALTERA_AVALON_SPI_RXDATA(SD_SPI_BASE);
  2101a8:	018008f4 	movhi	r6,35
  2101ac:	31a64004 	addi	r6,r6,-26368
#define CS_HIGH()   IOWR_ALTERA_AVALON_SPI_SLAVE_SEL(SD_SPI_BASE, 0)

// 發送並接收 1 個 Byte
static BYTE xchg_spi (BYTE dat) {
    // 1. 等待 TX 準備好：確保 SPI 的發送區有空位 (避免資料覆蓋 Overrun)
    while ((IORD_ALTERA_AVALON_SPI_STATUS(SD_SPI_BASE) & ALTERA_AVALON_SPI_STATUS_TRDY_MSK) == 0);
  2101b0:	10c00037 	ldwio	r3,0(r2)
  2101b4:	18c0100c 	andi	r3,r3,64
  2101b8:	183ffd26 	beq	r3,zero,2101b0 <wait_ready+0x24>

    // 2. 寫入 TX，啟動硬體時脈傳輸
    IOWR_ALTERA_AVALON_SPI_TXDATA(SD_SPI_BASE, dat);
  2101bc:	39400035 	stwio	r5,0(r7)
    
    // 3. 等待 RX 準備好：確保 8 個 Clock 確實跑完，且收到 SD 卡的回傳
    while ((IORD_ALTERA_AVALON_SPI_STATUS(SD_SPI_BASE) & ALTERA_AVALON_SPI_STATUS_RRDY_MSK) == 0);
  2101c0:	10c00037 	ldwio	r3,0(r2)
  2101c4:	18c0200c 	andi	r3,r3,128
  2101c8:	183ffd26 	beq	r3,zero,2101c0 <wait_ready+0x34>
    
    // 4. 讀取 RX 暫存器 (這會自動清除 RRDY 旗標，迎接下一個 Byte)
    return (BYTE)IORD_ALTERA_AVALON_SPI_RXDATA(SD_SPI_BASE);
  2101cc:	30c00037 	ldwio	r3,0(r6)
static int wait_ready (void) {
    BYTE d;
    UINT tmr = 5000000; 
    do {
        d = xchg_spi(0xFF);
    } while (d != 0xFF && --tmr);
  2101d0:	18c03fcc 	andi	r3,r3,255
  2101d4:	19400426 	beq	r3,r5,2101e8 <wait_ready+0x5c>
  2101d8:	213fffc4 	addi	r4,r4,-1
  2101dc:	203ff41e 	bne	r4,zero,2101b0 <wait_ready+0x24>
  2101e0:	0005883a 	mov	r2,zero
  2101e4:	f800283a 	ret
  2101e8:	00800044 	movi	r2,1
    return (d == 0xFF) ? 1 : 0;
}
  2101ec:	f800283a 	ret

002101f0 <send_cmd>:

// 發送 SD 卡指令
static BYTE send_cmd (BYTE cmd, DWORD arg) {
  2101f0:	defffc04 	addi	sp,sp,-16
  2101f4:	dc400115 	stw	r17,4(sp)
  2101f8:	2023883a 	mov	r17,r4
    BYTE n, res;
    if (cmd & 0x80) { // ACMD
  2101fc:	88803fcc 	andi	r2,r17,255
  210200:	1080201c 	xori	r2,r2,128
    } while (d != 0xFF && --tmr);
    return (d == 0xFF) ? 1 : 0;
}

// 發送 SD 卡指令
static BYTE send_cmd (BYTE cmd, DWORD arg) {
  210204:	dc800215 	stw	r18,8(sp)
  210208:	dc000015 	stw	r16,0(sp)
  21020c:	dfc00315 	stw	ra,12(sp)
    BYTE n, res;
    if (cmd & 0x80) { // ACMD
  210210:	10bfe004 	addi	r2,r2,-128
    } while (d != 0xFF && --tmr);
    return (d == 0xFF) ? 1 : 0;
}

// 發送 SD 卡指令
static BYTE send_cmd (BYTE cmd, DWORD arg) {
  210214:	2025883a 	mov	r18,r4
  210218:	2821883a 	mov	r16,r5
    BYTE n, res;
    if (cmd & 0x80) { // ACMD
  21021c:	1000be16 	blt	r2,zero,210518 <send_cmd+0x328>
        cmd &= 0x7F;
        res = send_cmd(CMD55, 0);
        if (res > 1) return res;
    }
    // 選擇 SD 卡並等待準備好
    CS_HIGH(); xchg_spi(0xFF);
  210220:	008008f4 	movhi	r2,35
  210224:	10a64504 	addi	r2,r2,-26348
  210228:	10000035 	stwio	zero,0(r2)
#define CS_HIGH()   IOWR_ALTERA_AVALON_SPI_SLAVE_SEL(SD_SPI_BASE, 0)

// 發送並接收 1 個 Byte
static BYTE xchg_spi (BYTE dat) {
    // 1. 等待 TX 準備好：確保 SPI 的發送區有空位 (避免資料覆蓋 Overrun)
    while ((IORD_ALTERA_AVALON_SPI_STATUS(SD_SPI_BASE) & ALTERA_AVALON_SPI_STATUS_TRDY_MSK) == 0);
  21022c:	00c008f4 	movhi	r3,35
  210230:	18e64204 	addi	r3,r3,-26360
  210234:	18800037 	ldwio	r2,0(r3)
  210238:	1080100c 	andi	r2,r2,64
  21023c:	103ffd26 	beq	r2,zero,210234 <send_cmd+0x44>

    // 2. 寫入 TX，啟動硬體時脈傳輸
    IOWR_ALTERA_AVALON_SPI_TXDATA(SD_SPI_BASE, dat);
  210240:	008008f4 	movhi	r2,35
  210244:	10a64104 	addi	r2,r2,-26364
  210248:	00c03fc4 	movi	r3,255
  21024c:	10c00035 	stwio	r3,0(r2)
    
    // 3. 等待 RX 準備好：確保 8 個 Clock 確實跑完，且收到 SD 卡的回傳
    while ((IORD_ALTERA_AVALON_SPI_STATUS(SD_SPI_BASE) & ALTERA_AVALON_SPI_STATUS_RRDY_MSK) == 0);
  210250:	00c008f4 	movhi	r3,35
  210254:	18e64204 	addi	r3,r3,-26360
  210258:	18800037 	ldwio	r2,0(r3)
  21025c:	1080200c 	andi	r2,r2,128
  210260:	103ffd26 	beq	r2,zero,210258 <send_cmd+0x68>
    
    // 4. 讀取 RX 暫存器 (這會自動清除 RRDY 旗標，迎接下一個 Byte)
    return (BYTE)IORD_ALTERA_AVALON_SPI_RXDATA(SD_SPI_BASE);
  210264:	008008f4 	movhi	r2,35
  210268:	10a64004 	addi	r2,r2,-26368
  21026c:	10800037 	ldwio	r2,0(r2)
        res = send_cmd(CMD55, 0);
        if (res > 1) return res;
    }
    // 選擇 SD 卡並等待準備好
    CS_HIGH(); xchg_spi(0xFF);
    CS_LOW(); xchg_spi(0xFF);
  210270:	008008f4 	movhi	r2,35
  210274:	10a64504 	addi	r2,r2,-26348
  210278:	00c00044 	movi	r3,1
  21027c:	10c00035 	stwio	r3,0(r2)
#define CS_HIGH()   IOWR_ALTERA_AVALON_SPI_SLAVE_SEL(SD_SPI_BASE, 0)

// 發送並接收 1 個 Byte
static BYTE xchg_spi (BYTE dat) {
    // 1. 等待 TX 準備好：確保 SPI 的發送區有空位 (避免資料覆蓋 Overrun)
    while ((IORD_ALTERA_AVALON_SPI_STATUS(SD_SPI_BASE) & ALTERA_AVALON_SPI_STATUS_TRDY_MSK) == 0);
  210280:	00c008f4 	movhi	r3,35
  210284:	18e64204 	addi	r3,r3,-26360
  210288:	18800037 	ldwio	r2,0(r3)
  21028c:	1080100c 	andi	r2,r2,64
  210290:	103ffd26 	beq	r2,zero,210288 <send_cmd+0x98>

    // 2. 寫入 TX，啟動硬體時脈傳輸
    IOWR_ALTERA_AVALON_SPI_TXDATA(SD_SPI_BASE, dat);
  210294:	008008f4 	movhi	r2,35
  210298:	10a64104 	addi	r2,r2,-26364
  21029c:	00c03fc4 	movi	r3,255
  2102a0:	10c00035 	stwio	r3,0(r2)
    
    // 3. 等待 RX 準備好：確保 8 個 Clock 確實跑完，且收到 SD 卡的回傳
    while ((IORD_ALTERA_AVALON_SPI_STATUS(SD_SPI_BASE) & ALTERA_AVALON_SPI_STATUS_RRDY_MSK) == 0);
  2102a4:	00c008f4 	movhi	r3,35
  2102a8:	18e64204 	addi	r3,r3,-26360
  2102ac:	18800037 	ldwio	r2,0(r3)
  2102b0:	1080200c 	andi	r2,r2,128
  2102b4:	103ffd26 	beq	r2,zero,2102ac <send_cmd+0xbc>
    
    // 4. 讀取 RX 暫存器 (這會自動清除 RRDY 旗標，迎接下一個 Byte)
    return (BYTE)IORD_ALTERA_AVALON_SPI_RXDATA(SD_SPI_BASE);
  2102b8:	008008f4 	movhi	r2,35
  2102bc:	10a64004 	addi	r2,r2,-26368
  2102c0:	10800037 	ldwio	r2,0(r2)
        if (res > 1) return res;
    }
    // 選擇 SD 卡並等待準備好
    CS_HIGH(); xchg_spi(0xFF);
    CS_LOW(); xchg_spi(0xFF);
    if (!wait_ready()) return 0xFF;
  2102c4:	021018c0 	call	21018c <wait_ready>
  2102c8:	1000071e 	bne	r2,zero,2102e8 <send_cmd+0xf8>
  2102cc:	00bfffc4 	movi	r2,-1
    do {
        res = xchg_spi(0xFF);
    } while ((res & 0x80) && --n);

    return res;
}
  2102d0:	dfc00317 	ldw	ra,12(sp)
  2102d4:	dc800217 	ldw	r18,8(sp)
  2102d8:	dc400117 	ldw	r17,4(sp)
  2102dc:	dc000017 	ldw	r16,0(sp)
  2102e0:	dec00404 	addi	sp,sp,16
  2102e4:	f800283a 	ret
    CS_HIGH(); xchg_spi(0xFF);
    CS_LOW(); xchg_spi(0xFF);
    if (!wait_ready()) return 0xFF;

    // 傳送 6 bytes 的指令封包
    xchg_spi(cmd | 0x40);          // Start + Command index
  2102e8:	89001014 	ori	r4,r17,64
#define CS_HIGH()   IOWR_ALTERA_AVALON_SPI_SLAVE_SEL(SD_SPI_BASE, 0)

// 發送並接收 1 個 Byte
static BYTE xchg_spi (BYTE dat) {
    // 1. 等待 TX 準備好：確保 SPI 的發送區有空位 (避免資料覆蓋 Overrun)
    while ((IORD_ALTERA_AVALON_SPI_STATUS(SD_SPI_BASE) & ALTERA_AVALON_SPI_STATUS_TRDY_MSK) == 0);
  2102ec:	00c008f4 	movhi	r3,35
  2102f0:	18e64204 	addi	r3,r3,-26360
  2102f4:	18800037 	ldwio	r2,0(r3)
  2102f8:	1080100c 	andi	r2,r2,64
  2102fc:	103ffd26 	beq	r2,zero,2102f4 <send_cmd+0x104>

    // 2. 寫入 TX，啟動硬體時脈傳輸
    IOWR_ALTERA_AVALON_SPI_TXDATA(SD_SPI_BASE, dat);
  210300:	20c03fcc 	andi	r3,r4,255
  210304:	008008f4 	movhi	r2,35
  210308:	10a64104 	addi	r2,r2,-26364
  21030c:	10c00035 	stwio	r3,0(r2)
    
    // 3. 等待 RX 準備好：確保 8 個 Clock 確實跑完，且收到 SD 卡的回傳
    while ((IORD_ALTERA_AVALON_SPI_STATUS(SD_SPI_BASE) & ALTERA_AVALON_SPI_STATUS_RRDY_MSK) == 0);
  210310:	00c008f4 	movhi	r3,35
  210314:	18e64204 	addi	r3,r3,-26360
  210318:	18800037 	ldwio	r2,0(r3)
  21031c:	1080200c 	andi	r2,r2,128
  210320:	103ffd26 	beq	r2,zero,210318 <send_cmd+0x128>
    
    // 4. 讀取 RX 暫存器 (這會自動清除 RRDY 旗標，迎接下一個 Byte)
    return (BYTE)IORD_ALTERA_AVALON_SPI_RXDATA(SD_SPI_BASE);
  210324:	008008f4 	movhi	r2,35
  210328:	10a64004 	addi	r2,r2,-26368
  21032c:	10800037 	ldwio	r2,0(r2)
#define CS_HIGH()   IOWR_ALTERA_AVALON_SPI_SLAVE_SEL(SD_SPI_BASE, 0)

// 發送並接收 1 個 Byte
static BYTE xchg_spi (BYTE dat) {
    // 1. 等待 TX 準備好：確保 SPI 的發送區有空位 (避免資料覆蓋 Overrun)
    while ((IORD_ALTERA_AVALON_SPI_STATUS(SD_SPI_BASE) & ALTERA_AVALON_SPI_STATUS_TRDY_MSK) == 0);
  210330:	00c008f4 	movhi	r3,35
  210334:	18e64204 	addi	r3,r3,-26360
            CS_HIGH();
            return RES_OK;
        }
    }
    return RES_ERROR;
}
  210338:	8008d63a 	srli	r4,r16,24
#define CS_HIGH()   IOWR_ALTERA_AVALON_SPI_SLAVE_SEL(SD_SPI_BASE, 0)

// 發送並接收 1 個 Byte
static BYTE xchg_spi (BYTE dat) {
    // 1. 等待 TX 準備好：確保 SPI 的發送區有空位 (避免資料覆蓋 Overrun)
    while ((IORD_ALTERA_AVALON_SPI_STATUS(SD_SPI_BASE) & ALTERA_AVALON_SPI_STATUS_TRDY_MSK) == 0);
  21033c:	18800037 	ldwio	r2,0(r3)
  210340:	1080100c 	andi	r2,r2,64
  210344:	103ffd26 	beq	r2,zero,21033c <send_cmd+0x14c>

    // 2. 寫入 TX，啟動硬體時脈傳輸
    IOWR_ALTERA_AVALON_SPI_TXDATA(SD_SPI_BASE, dat);
  210348:	008008f4 	movhi	r2,35
  21034c:	10a64104 	addi	r2,r2,-26364
  210350:	11000035 	stwio	r4,0(r2)
    
    // 3. 等待 RX 準備好：確保 8 個 Clock 確實跑完，且收到 SD 卡的回傳
    while ((IORD_ALTERA_AVALON_SPI_STATUS(SD_SPI_BASE) & ALTERA_AVALON_SPI_STATUS_RRDY_MSK) == 0);
  210354:	00c008f4 	movhi	r3,35
  210358:	18e64204 	addi	r3,r3,-26360
  21035c:	18800037 	ldwio	r2,0(r3)
  210360:	1080200c 	andi	r2,r2,128
  210364:	103ffd26 	beq	r2,zero,21035c <send_cmd+0x16c>
    
    // 4. 讀取 RX 暫存器 (這會自動清除 RRDY 旗標，迎接下一個 Byte)
    return (BYTE)IORD_ALTERA_AVALON_SPI_RXDATA(SD_SPI_BASE);
  210368:	008008f4 	movhi	r2,35
  21036c:	10a64004 	addi	r2,r2,-26368
  210370:	10800037 	ldwio	r2,0(r2)
#define CS_HIGH()   IOWR_ALTERA_AVALON_SPI_SLAVE_SEL(SD_SPI_BASE, 0)

// 發送並接收 1 個 Byte
static BYTE xchg_spi (BYTE dat) {
    // 1. 等待 TX 準備好：確保 SPI 的發送區有空位 (避免資料覆蓋 Overrun)
    while ((IORD_ALTERA_AVALON_SPI_STATUS(SD_SPI_BASE) & ALTERA_AVALON_SPI_STATUS_TRDY_MSK) == 0);
  210374:	00c008f4 	movhi	r3,35
  210378:	18e64204 	addi	r3,r3,-26360
    if (!wait_ready()) return 0xFF;

    // 傳送 6 bytes 的指令封包
    xchg_spi(cmd | 0x40);          // Start + Command index
    xchg_spi((BYTE)(arg >> 24));   // Argument[31..24]
    xchg_spi((BYTE)(arg >> 16));   // Argument[23..16]
  21037c:	8008d43a 	srli	r4,r16,16
            CS_HIGH();
            return RES_OK;
        }
    }
    return RES_ERROR;
}
  210380:	21003fcc 	andi	r4,r4,255
#define CS_HIGH()   IOWR_ALTERA_AVALON_SPI_SLAVE_SEL(SD_SPI_BASE, 0)

// 發送並接收 1 個 Byte
static BYTE xchg_spi (BYTE dat) {
    // 1. 等待 TX 準備好：確保 SPI 的發送區有空位 (避免資料覆蓋 Overrun)
    while ((IORD_ALTERA_AVALON_SPI_STATUS(SD_SPI_BASE) & ALTERA_AVALON_SPI_STATUS_TRDY_MSK) == 0);
  210384:	18800037 	ldwio	r2,0(r3)
  210388:	1080100c 	andi	r2,r2,64
  21038c:	103ffd26 	beq	r2,zero,210384 <send_cmd+0x194>

    // 2. 寫入 TX，啟動硬體時脈傳輸
    IOWR_ALTERA_AVALON_SPI_TXDATA(SD_SPI_BASE, dat);
  210390:	008008f4 	movhi	r2,35
  210394:	10a64104 	addi	r2,r2,-26364
  210398:	11000035 	stwio	r4,0(r2)
    
    // 3. 等待 RX 準備好：確保 8 個 Clock 確實跑完，且收到 SD 卡的回傳
    while ((IORD_ALTERA_AVALON_SPI_STATUS(SD_SPI_BASE) & ALTERA_AVALON_SPI_STATUS_RRDY_MSK) == 0);
  21039c:	00c008f4 	movhi	r3,35
  2103a0:	18e64204 	addi	r3,r3,-26360
  2103a4:	18800037 	ldwio	r2,0(r3)
  2103a8:	1080200c 	andi	r2,r2,128
  2103ac:	103ffd26 	beq	r2,zero,2103a4 <send_cmd+0x1b4>
    
    // 4. 讀取 RX 暫存器 (這會自動清除 RRDY 旗標，迎接下一個 Byte)
    return (BYTE)IORD_ALTERA_AVALON_SPI_RXDATA(SD_SPI_BASE);
  2103b0:	008008f4 	movhi	r2,35
  2103b4:	10a64004 	addi	r2,r2,-26368
  2103b8:	10800037 	ldwio	r2,0(r2)
#define CS_HIGH()   IOWR_ALTERA_AVALON_SPI_SLAVE_SEL(SD_SPI_BASE, 0)

// 發送並接收 1 個 Byte
static BYTE xchg_spi (BYTE dat) {
    // 1. 等待 TX 準備好：確保 SPI 的發送區有空位 (避免資料覆蓋 Overrun)
    while ((IORD_ALTERA_AVALON_SPI_STATUS(SD_SPI_BASE) & ALTERA_AVALON_SPI_STATUS_TRDY_MSK) == 0);
  2103bc:	00c008f4 	movhi	r3,35
  2103c0:	18e64204 	addi	r3,r3,-26360

    // 傳送 6 bytes 的指令封包
    xchg_spi(cmd | 0x40);          // Start + Command index
    xchg_spi((BYTE)(arg >> 24));   // Argument[31..24]
    xchg_spi((BYTE)(arg >> 16));   // Argument[23..16]
    xchg_spi((BYTE)(arg >> 8));    // Argument[15..8]
  2103c4:	8008d23a 	srli	r4,r16,8
            CS_HIGH();
            return RES_OK;
        }
    }
    return RES_ERROR;
}
  2103c8:	21003fcc 	andi	r4,r4,255
#define CS_HIGH()   IOWR_ALTERA_AVALON_SPI_SLAVE_SEL(SD_SPI_BASE, 0)

// 發送並接收 1 個 Byte
static BYTE xchg_spi (BYTE dat) {
    // 1. 等待 TX 準備好：確保 SPI 的發送區有空位 (避免資料覆蓋 Overrun)
    while ((IORD_ALTERA_AVALON_SPI_STATUS(SD_SPI_BASE) & ALTERA_AVALON_SPI_STATUS_TRDY_MSK) == 0);
  2103cc:	18800037 	ldwio	r2,0(r3)
  2103d0:	1080100c 	andi	r2,r2,64
  2103d4:	103ffd26 	beq	r2,zero,2103cc <send_cmd+0x1dc>

    // 2. 寫入 TX，啟動硬體時脈傳輸
    IOWR_ALTERA_AVALON_SPI_TXDATA(SD_SPI_BASE, dat);
  2103d8:	008008f4 	movhi	r2,35
  2103dc:	10a64104 	addi	r2,r2,-26364
  2103e0:	11000035 	stwio	r4,0(r2)
    
    // 3. 等待 RX 準備好：確保 8 個 Clock 確實跑完，且收到 SD 卡的回傳
    while ((IORD_ALTERA_AVALON_SPI_STATUS(SD_SPI_BASE) & ALTERA_AVALON_SPI_STATUS_RRDY_MSK) == 0);
  2103e4:	00c008f4 	movhi	r3,35
  2103e8:	18e64204 	addi	r3,r3,-26360
  2103ec:	18800037 	ldwio	r2,0(r3)
  2103f0:	1080200c 	andi	r2,r2,128
  2103f4:	103ffd26 	beq	r2,zero,2103ec <send_cmd+0x1fc>
    
    // 4. 讀取 RX 暫存器 (這會自動清除 RRDY 旗標，迎接下一個 Byte)
    return (BYTE)IORD_ALTERA_AVALON_SPI_RXDATA(SD_SPI_BASE);
  2103f8:	008008f4 	movhi	r2,35
  2103fc:	10a64004 	addi	r2,r2,-26368
  210400:	10800037 	ldwio	r2,0(r2)
#define CS_HIGH()   IOWR_ALTERA_AVALON_SPI_SLAVE_SEL(SD_SPI_BASE, 0)

// 發送並接收 1 個 Byte
static BYTE xchg_spi (BYTE dat) {
    // 1. 等待 TX 準備好：確保 SPI 的發送區有空位 (避免資料覆蓋 Overrun)
    while ((IORD_ALTERA_AVALON_SPI_STATUS(SD_SPI_BASE) & ALTERA_AVALON_SPI_STATUS_TRDY_MSK) == 0);
  210404:	00c008f4 	movhi	r3,35
  210408:	18e64204 	addi	r3,r3,-26360
            CS_HIGH();
            return RES_OK;
        }
    }
    return RES_ERROR;
}
  21040c:	84003fcc 	andi	r16,r16,255
#define CS_HIGH()   IOWR_ALTERA_AVALON_SPI_SLAVE_SEL(SD_SPI_BASE, 0)

// 發送並接收 1 個 Byte
static BYTE xchg_spi (BYTE dat) {
    // 1. 等待 TX 準備好：確保 SPI 的發送區有空位 (避免資料覆蓋 Overrun)
    while ((IORD_ALTERA_AVALON_SPI_STATUS(SD_SPI_BASE) & ALTERA_AVALON_SPI_STATUS_TRDY_MSK) == 0);
  210410:	18800037 	ldwio	r2,0(r3)
  210414:	1080100c 	andi	r2,r2,64
  210418:	103ffd26 	beq	r2,zero,210410 <send_cmd+0x220>

    // 2. 寫入 TX，啟動硬體時脈傳輸
    IOWR_ALTERA_AVALON_SPI_TXDATA(SD_SPI_BASE, dat);
  21041c:	008008f4 	movhi	r2,35
  210420:	10a64104 	addi	r2,r2,-26364
  210424:	14000035 	stwio	r16,0(r2)
    
    // 3. 等待 RX 準備好：確保 8 個 Clock 確實跑完，且收到 SD 卡的回傳
    while ((IORD_ALTERA_AVALON_SPI_STATUS(SD_SPI_BASE) & ALTERA_AVALON_SPI_STATUS_RRDY_MSK) == 0);
  210428:	00c008f4 	movhi	r3,35
  21042c:	18e64204 	addi	r3,r3,-26360
  210430:	18800037 	ldwio	r2,0(r3)
  210434:	1080200c 	andi	r2,r2,128
  210438:	103ffd26 	beq	r2,zero,210430 <send_cmd+0x240>
    
    // 4. 讀取 RX 暫存器 (這會自動清除 RRDY 旗標，迎接下一個 Byte)
    return (BYTE)IORD_ALTERA_AVALON_SPI_RXDATA(SD_SPI_BASE);
  21043c:	008008f4 	movhi	r2,35
  210440:	10a64004 	addi	r2,r2,-26368
  210444:	10800037 	ldwio	r2,0(r2)
    xchg_spi((BYTE)(arg >> 16));   // Argument[23..16]
    xchg_spi((BYTE)(arg >> 8));    // Argument[15..8]
    xchg_spi((BYTE)arg);           // Argument[7..0]
    
    n = 0x01;                      // Dummy CRC + Stop
    if (cmd == CMD0) n = 0x95;     // Valid CRC for CMD0
  210448:	8c403fcc 	andi	r17,r17,255
  21044c:	88003a26 	beq	r17,zero,210538 <send_cmd+0x348>
    if (cmd == CMD8) n = 0x87;     // Valid CRC for CMD8
  210450:	00800204 	movi	r2,8
  210454:	88804c1e 	bne	r17,r2,210588 <send_cmd+0x398>
  210458:	010021c4 	movi	r4,135
#define CS_HIGH()   IOWR_ALTERA_AVALON_SPI_SLAVE_SEL(SD_SPI_BASE, 0)

// 發送並接收 1 個 Byte
static BYTE xchg_spi (BYTE dat) {
    // 1. 等待 TX 準備好：確保 SPI 的發送區有空位 (避免資料覆蓋 Overrun)
    while ((IORD_ALTERA_AVALON_SPI_STATUS(SD_SPI_BASE) & ALTERA_AVALON_SPI_STATUS_TRDY_MSK) == 0);
  21045c:	00c008f4 	movhi	r3,35
  210460:	18e64204 	addi	r3,r3,-26360
  210464:	18800037 	ldwio	r2,0(r3)
  210468:	1080100c 	andi	r2,r2,64
  21046c:	103ffd26 	beq	r2,zero,210464 <send_cmd+0x274>

    // 2. 寫入 TX，啟動硬體時脈傳輸
    IOWR_ALTERA_AVALON_SPI_TXDATA(SD_SPI_BASE, dat);
  210470:	008008f4 	movhi	r2,35
  210474:	10a64104 	addi	r2,r2,-26364
  210478:	11000035 	stwio	r4,0(r2)
    
    // 3. 等待 RX 準備好：確保 8 個 Clock 確實跑完，且收到 SD 卡的回傳
    while ((IORD_ALTERA_AVALON_SPI_STATUS(SD_SPI_BASE) & ALTERA_AVALON_SPI_STATUS_RRDY_MSK) == 0);
  21047c:	00c008f4 	movhi	r3,35
  210480:	18e64204 	addi	r3,r3,-26360
  210484:	18800037 	ldwio	r2,0(r3)
  210488:	1080200c 	andi	r2,r2,128
  21048c:	103ffd26 	beq	r2,zero,210484 <send_cmd+0x294>
    
    // 4. 讀取 RX 暫存器 (這會自動清除 RRDY 旗標，迎接下一個 Byte)
    return (BYTE)IORD_ALTERA_AVALON_SPI_RXDATA(SD_SPI_BASE);
  210490:	008008f4 	movhi	r2,35
  210494:	10a64004 	addi	r2,r2,-26368
  210498:	10800037 	ldwio	r2,0(r2)
    if (cmd == CMD0) n = 0x95;     // Valid CRC for CMD0
    if (cmd == CMD8) n = 0x87;     // Valid CRC for CMD8
    xchg_spi(n);

    // 等待有效回應 (0x00 ~ 0x7F)
    if (cmd == CMD12) xchg_spi(0xFF); // Skip stuff byte for CMD12
  21049c:	00800304 	movi	r2,12
  2104a0:	88802726 	beq	r17,r2,210540 <send_cmd+0x350>
    xchg_spi((BYTE)(arg >> 8));    // Argument[15..8]
    xchg_spi((BYTE)arg);           // Argument[7..0]
    
    n = 0x01;                      // Dummy CRC + Stop
    if (cmd == CMD0) n = 0x95;     // Valid CRC for CMD0
    if (cmd == CMD8) n = 0x87;     // Valid CRC for CMD8
  2104a4:	01000284 	movi	r4,10
#define CS_HIGH()   IOWR_ALTERA_AVALON_SPI_SLAVE_SEL(SD_SPI_BASE, 0)

// 發送並接收 1 個 Byte
static BYTE xchg_spi (BYTE dat) {
    // 1. 等待 TX 準備好：確保 SPI 的發送區有空位 (避免資料覆蓋 Overrun)
    while ((IORD_ALTERA_AVALON_SPI_STATUS(SD_SPI_BASE) & ALTERA_AVALON_SPI_STATUS_TRDY_MSK) == 0);
  2104a8:	00c008f4 	movhi	r3,35
  2104ac:	18e64204 	addi	r3,r3,-26360

    // 2. 寫入 TX，啟動硬體時脈傳輸
    IOWR_ALTERA_AVALON_SPI_TXDATA(SD_SPI_BASE, dat);
  2104b0:	02003fc4 	movi	r8,255
  2104b4:	01c008f4 	movhi	r7,35
  2104b8:	39e64104 	addi	r7,r7,-26364
    
    // 3. 等待 RX 準備好：確保 8 個 Clock 確實跑完，且收到 SD 卡的回傳
    while ((IORD_ALTERA_AVALON_SPI_STATUS(SD_SPI_BASE) & ALTERA_AVALON_SPI_STATUS_RRDY_MSK) == 0);
    
    // 4. 讀取 RX 暫存器 (這會自動清除 RRDY 旗標，迎接下一個 Byte)
    return (BYTE)IORD_ALTERA_AVALON_SPI_RXDATA(SD_SPI_BASE);
  2104bc:	018008f4 	movhi	r6,35
  2104c0:	31a64004 	addi	r6,r6,-26368
#define CS_HIGH()   IOWR_ALTERA_AVALON_SPI_SLAVE_SEL(SD_SPI_BASE, 0)

// 發送並接收 1 個 Byte
static BYTE xchg_spi (BYTE dat) {
    // 1. 等待 TX 準備好：確保 SPI 的發送區有空位 (避免資料覆蓋 Overrun)
    while ((IORD_ALTERA_AVALON_SPI_STATUS(SD_SPI_BASE) & ALTERA_AVALON_SPI_STATUS_TRDY_MSK) == 0);
  2104c4:	18800037 	ldwio	r2,0(r3)
  2104c8:	1080100c 	andi	r2,r2,64
  2104cc:	103ffd26 	beq	r2,zero,2104c4 <send_cmd+0x2d4>

    // 2. 寫入 TX，啟動硬體時脈傳輸
    IOWR_ALTERA_AVALON_SPI_TXDATA(SD_SPI_BASE, dat);
  2104d0:	3a000035 	stwio	r8,0(r7)
    
    // 3. 等待 RX 準備好：確保 8 個 Clock 確實跑完，且收到 SD 卡的回傳
    while ((IORD_ALTERA_AVALON_SPI_STATUS(SD_SPI_BASE) & ALTERA_AVALON_SPI_STATUS_RRDY_MSK) == 0);
  2104d4:	18800037 	ldwio	r2,0(r3)
  2104d8:	1080200c 	andi	r2,r2,128
  2104dc:	103ffd26 	beq	r2,zero,2104d4 <send_cmd+0x2e4>
    
    // 4. 讀取 RX 暫存器 (這會自動清除 RRDY 旗標，迎接下一個 Byte)
    return (BYTE)IORD_ALTERA_AVALON_SPI_RXDATA(SD_SPI_BASE);
  2104e0:	30800037 	ldwio	r2,0(r6)
    // 等待有效回應 (0x00 ~ 0x7F)
    if (cmd == CMD12) xchg_spi(0xFF); // Skip stuff byte for CMD12
    n = 10; 
    do {
        res = xchg_spi(0xFF);
    } while ((res & 0x80) && --n);
  2104e4:	11403fcc 	andi	r5,r2,255
  2104e8:	2940201c 	xori	r5,r5,128
  2104ec:	297fe004 	addi	r5,r5,-128
  2104f0:	283f770e 	bge	r5,zero,2102d0 <send_cmd+0xe0>
  2104f4:	213fffc4 	addi	r4,r4,-1
  2104f8:	21403fcc 	andi	r5,r4,255
  2104fc:	283ff11e 	bne	r5,zero,2104c4 <send_cmd+0x2d4>

    return res;
}
  210500:	dfc00317 	ldw	ra,12(sp)
  210504:	dc800217 	ldw	r18,8(sp)
  210508:	dc400117 	ldw	r17,4(sp)
  21050c:	dc000017 	ldw	r16,0(sp)
  210510:	dec00404 	addi	sp,sp,16
  210514:	f800283a 	ret
// 發送 SD 卡指令
static BYTE send_cmd (BYTE cmd, DWORD arg) {
    BYTE n, res;
    if (cmd & 0x80) { // ACMD
        cmd &= 0x7F;
        res = send_cmd(CMD55, 0);
  210518:	01000dc4 	movi	r4,55
  21051c:	000b883a 	mov	r5,zero
  210520:	02101f00 	call	2101f0 <send_cmd>
        if (res > 1) return res;
  210524:	10c03fcc 	andi	r3,r2,255
  210528:	01000044 	movi	r4,1
  21052c:	20ff6836 	bltu	r4,r3,2102d0 <send_cmd+0xe0>

// 發送 SD 卡指令
static BYTE send_cmd (BYTE cmd, DWORD arg) {
    BYTE n, res;
    if (cmd & 0x80) { // ACMD
        cmd &= 0x7F;
  210530:	94401fcc 	andi	r17,r18,127
  210534:	003f3a06 	br	210220 <send_cmd+0x30>
    xchg_spi((BYTE)(arg >> 16));   // Argument[23..16]
    xchg_spi((BYTE)(arg >> 8));    // Argument[15..8]
    xchg_spi((BYTE)arg);           // Argument[7..0]
    
    n = 0x01;                      // Dummy CRC + Stop
    if (cmd == CMD0) n = 0x95;     // Valid CRC for CMD0
  210538:	01002544 	movi	r4,149
  21053c:	003fc706 	br	21045c <send_cmd+0x26c>
#define CS_HIGH()   IOWR_ALTERA_AVALON_SPI_SLAVE_SEL(SD_SPI_BASE, 0)

// 發送並接收 1 個 Byte
static BYTE xchg_spi (BYTE dat) {
    // 1. 等待 TX 準備好：確保 SPI 的發送區有空位 (避免資料覆蓋 Overrun)
    while ((IORD_ALTERA_AVALON_SPI_STATUS(SD_SPI_BASE) & ALTERA_AVALON_SPI_STATUS_TRDY_MSK) == 0);
  210540:	00c008f4 	movhi	r3,35
  210544:	18e64204 	addi	r3,r3,-26360
  210548:	18800037 	ldwio	r2,0(r3)
  21054c:	1080100c 	andi	r2,r2,64
  210550:	103ffd26 	beq	r2,zero,210548 <send_cmd+0x358>

    // 2. 寫入 TX，啟動硬體時脈傳輸
    IOWR_ALTERA_AVALON_SPI_TXDATA(SD_SPI_BASE, dat);
  210554:	008008f4 	movhi	r2,35
  210558:	10a64104 	addi	r2,r2,-26364
  21055c:	00c03fc4 	movi	r3,255
  210560:	10c00035 	stwio	r3,0(r2)
    
    // 3. 等待 RX 準備好：確保 8 個 Clock 確實跑完，且收到 SD 卡的回傳
    while ((IORD_ALTERA_AVALON_SPI_STATUS(SD_SPI_BASE) & ALTERA_AVALON_SPI_STATUS_RRDY_MSK) == 0);
  210564:	00c008f4 	movhi	r3,35
  210568:	18e64204 	addi	r3,r3,-26360
  21056c:	18800037 	ldwio	r2,0(r3)
  210570:	1080200c 	andi	r2,r2,128
  210574:	103ffd26 	beq	r2,zero,21056c <send_cmd+0x37c>
    
    // 4. 讀取 RX 暫存器 (這會自動清除 RRDY 旗標，迎接下一個 Byte)
    return (BYTE)IORD_ALTERA_AVALON_SPI_RXDATA(SD_SPI_BASE);
  210578:	008008f4 	movhi	r2,35
  21057c:	10a64004 	addi	r2,r2,-26368
  210580:	10800037 	ldwio	r2,0(r2)
  210584:	003fc706 	br	2104a4 <send_cmd+0x2b4>
    xchg_spi((BYTE)(arg >> 8));    // Argument[15..8]
    xchg_spi((BYTE)arg);           // Argument[7..0]
    
    n = 0x01;                      // Dummy CRC + Stop
    if (cmd == CMD0) n = 0x95;     // Valid CRC for CMD0
    if (cmd == CMD8) n = 0x87;     // Valid CRC for CMD8
  210588:	01000044 	movi	r4,1
  21058c:	003fb306 	br	21045c <send_cmd+0x26c>

00210590 <disk_status>:

DSTATUS disk_status (
	BYTE pdrv		/* Physical drive nmuber to identify the drive */
)
{
    if (pdrv) return STA_NOINIT;
  210590:	21003fcc 	andi	r4,r4,255
  210594:	2000021e 	bne	r4,zero,2105a0 <disk_status+0x10>
    return Stat;
  210598:	d0a00003 	ldbu	r2,-32768(gp)
  21059c:	f800283a 	ret

DSTATUS disk_status (
	BYTE pdrv		/* Physical drive nmuber to identify the drive */
)
{
    if (pdrv) return STA_NOINIT;
  2105a0:	00800044 	movi	r2,1
    return Stat;
}
  2105a4:	f800283a 	ret

002105a8 <disk_initialize>:
/*-----------------------------------------------------------------------*/

DSTATUS disk_initialize (
	BYTE pdrv				/* Physical drive nmuber to identify the drive */
)
{
  2105a8:	defffb04 	addi	sp,sp,-20
  2105ac:	dfc00415 	stw	ra,16(sp)
  2105b0:	dc800315 	stw	r18,12(sp)
  2105b4:	dc400215 	stw	r17,8(sp)
  2105b8:	dc000115 	stw	r16,4(sp)
	BYTE n, ty, ocr[4];
    if (pdrv) return STA_NOINIT;
  2105bc:	21003fcc 	andi	r4,r4,255
  2105c0:	2000461e 	bne	r4,zero,2106dc <disk_initialize+0x134>
    if (Stat & STA_NODISK) return Stat;
  2105c4:	d0a00003 	ldbu	r2,-32768(gp)
  2105c8:	1080008c 	andi	r2,r2,2
  2105cc:	10803fcc 	andi	r2,r2,255
  2105d0:	10000726 	beq	r2,zero,2105f0 <disk_initialize+0x48>
    CS_HIGH(); xchg_spi(0xFF);

    if (ty) Stat &= ~STA_NOINIT; // 初始化成功
    else Stat |= STA_NOINIT;     // 初始化失敗

    return Stat;
  2105d4:	d0a00003 	ldbu	r2,-32768(gp)
}
  2105d8:	dfc00417 	ldw	ra,16(sp)
  2105dc:	dc800317 	ldw	r18,12(sp)
  2105e0:	dc400217 	ldw	r17,8(sp)
  2105e4:	dc000117 	ldw	r16,4(sp)
  2105e8:	dec00504 	addi	sp,sp,20
  2105ec:	f800283a 	ret
{
	BYTE n, ty, ocr[4];
    if (pdrv) return STA_NOINIT;
    if (Stat & STA_NODISK) return Stat;

    IOWR_ALTERA_AVALON_SPI_STATUS(SD_SPI_BASE, 0);
  2105f0:	008008f4 	movhi	r2,35
  2105f4:	10a64204 	addi	r2,r2,-26360
  2105f8:	10000035 	stwio	zero,0(r2)
	IORD_ALTERA_AVALON_SPI_RXDATA(SD_SPI_BASE);
  2105fc:	014008f4 	movhi	r5,35
  210600:	29664004 	addi	r5,r5,-26368
  210604:	28c00037 	ldwio	r3,0(r5)

    CS_HIGH();
  210608:	00c008f4 	movhi	r3,35
  21060c:	18e64504 	addi	r3,r3,-26348
  210610:	18000035 	stwio	zero,0(r3)
  210614:	01000284 	movi	r4,10
static BYTE xchg_spi (BYTE dat) {
    // 1. 等待 TX 準備好：確保 SPI 的發送區有空位 (避免資料覆蓋 Overrun)
    while ((IORD_ALTERA_AVALON_SPI_STATUS(SD_SPI_BASE) & ALTERA_AVALON_SPI_STATUS_TRDY_MSK) == 0);

    // 2. 寫入 TX，啟動硬體時脈傳輸
    IOWR_ALTERA_AVALON_SPI_TXDATA(SD_SPI_BASE, dat);
  210618:	01c03fc4 	movi	r7,255
  21061c:	018008f4 	movhi	r6,35
  210620:	31a64104 	addi	r6,r6,-26364
#define CS_HIGH()   IOWR_ALTERA_AVALON_SPI_SLAVE_SEL(SD_SPI_BASE, 0)

// 發送並接收 1 個 Byte
static BYTE xchg_spi (BYTE dat) {
    // 1. 等待 TX 準備好：確保 SPI 的發送區有空位 (避免資料覆蓋 Overrun)
    while ((IORD_ALTERA_AVALON_SPI_STATUS(SD_SPI_BASE) & ALTERA_AVALON_SPI_STATUS_TRDY_MSK) == 0);
  210624:	10c00037 	ldwio	r3,0(r2)
  210628:	18c0100c 	andi	r3,r3,64
  21062c:	183ffd26 	beq	r3,zero,210624 <disk_initialize+0x7c>

    // 2. 寫入 TX，啟動硬體時脈傳輸
    IOWR_ALTERA_AVALON_SPI_TXDATA(SD_SPI_BASE, dat);
  210630:	31c00035 	stwio	r7,0(r6)
    
    // 3. 等待 RX 準備好：確保 8 個 Clock 確實跑完，且收到 SD 卡的回傳
    while ((IORD_ALTERA_AVALON_SPI_STATUS(SD_SPI_BASE) & ALTERA_AVALON_SPI_STATUS_RRDY_MSK) == 0);
  210634:	10c00037 	ldwio	r3,0(r2)
  210638:	18c0200c 	andi	r3,r3,128
  21063c:	183ffd26 	beq	r3,zero,210634 <disk_initialize+0x8c>
    
    // 4. 讀取 RX 暫存器 (這會自動清除 RRDY 旗標，迎接下一個 Byte)
    return (BYTE)IORD_ALTERA_AVALON_SPI_RXDATA(SD_SPI_BASE);
  210640:	28c00037 	ldwio	r3,0(r5)
  210644:	213fffc4 	addi	r4,r4,-1

    IOWR_ALTERA_AVALON_SPI_STATUS(SD_SPI_BASE, 0);
	IORD_ALTERA_AVALON_SPI_RXDATA(SD_SPI_BASE);

    CS_HIGH();
    for (n = 10; n; n--) xchg_spi(0xFF); // 發送 80 個 Dummy Clocks 喚醒 SD 卡
  210648:	20c03fcc 	andi	r3,r4,255
  21064c:	183ff51e 	bne	r3,zero,210624 <disk_initialize+0x7c>

    ty = 0;
    if (send_cmd(CMD0, 0) == 1) { // 進入 SPI Idle 狀態
  210650:	0009883a 	mov	r4,zero
  210654:	000b883a 	mov	r5,zero
  210658:	02101f00 	call	2101f0 <send_cmd>
  21065c:	14003fcc 	andi	r16,r2,255
  210660:	00800044 	movi	r2,1
  210664:	80802826 	beq	r16,r2,210708 <disk_initialize+0x160>
	IORD_ALTERA_AVALON_SPI_RXDATA(SD_SPI_BASE);

    CS_HIGH();
    for (n = 10; n; n--) xchg_spi(0xFF); // 發送 80 個 Dummy Clocks 喚醒 SD 卡

    ty = 0;
  210668:	0023883a 	mov	r17,zero
  21066c:	0021883a 	mov	r16,zero
        } else { // SDv1 or MMC
            ty = (send_cmd(ACMD41, 0) <= 1) ? 2 : 1;
            while (send_cmd(ty == 2 ? ACMD41 : CMD1, 0));
        }
    }
    CardType = ty;
  210670:	d460e105 	stb	r17,-31868(gp)
    CS_HIGH(); xchg_spi(0xFF);
  210674:	008008f4 	movhi	r2,35
  210678:	10a64504 	addi	r2,r2,-26348
  21067c:	10000035 	stwio	zero,0(r2)
#define CS_HIGH()   IOWR_ALTERA_AVALON_SPI_SLAVE_SEL(SD_SPI_BASE, 0)

// 發送並接收 1 個 Byte
static BYTE xchg_spi (BYTE dat) {
    // 1. 等待 TX 準備好：確保 SPI 的發送區有空位 (避免資料覆蓋 Overrun)
    while ((IORD_ALTERA_AVALON_SPI_STATUS(SD_SPI_BASE) & ALTERA_AVALON_SPI_STATUS_TRDY_MSK) == 0);
  210680:	00c008f4 	movhi	r3,35
  210684:	18e64204 	addi	r3,r3,-26360
  210688:	18800037 	ldwio	r2,0(r3)
  21068c:	1080100c 	andi	r2,r2,64
  210690:	103ffd26 	beq	r2,zero,210688 <disk_initialize+0xe0>

    // 2. 寫入 TX，啟動硬體時脈傳輸
    IOWR_ALTERA_AVALON_SPI_TXDATA(SD_SPI_BASE, dat);
  210694:	008008f4 	movhi	r2,35
  210698:	10a64104 	addi	r2,r2,-26364
  21069c:	00c03fc4 	movi	r3,255
  2106a0:	10c00035 	stwio	r3,0(r2)
    
    // 3. 等待 RX 準備好：確保 8 個 Clock 確實跑完，且收到 SD 卡的回傳
    while ((IORD_ALTERA_AVALON_SPI_STATUS(SD_SPI_BASE) & ALTERA_AVALON_SPI_STATUS_RRDY_MSK) == 0);
  2106a4:	00c008f4 	movhi	r3,35
  2106a8:	18e64204 	addi	r3,r3,-26360
  2106ac:	18800037 	ldwio	r2,0(r3)
  2106b0:	1080200c 	andi	r2,r2,128
  2106b4:	103ffd26 	beq	r2,zero,2106ac <disk_initialize+0x104>
    
    // 4. 讀取 RX 暫存器 (這會自動清除 RRDY 旗標，迎接下一個 Byte)
    return (BYTE)IORD_ALTERA_AVALON_SPI_RXDATA(SD_SPI_BASE);
  2106b8:	008008f4 	movhi	r2,35
  2106bc:	10a64004 	addi	r2,r2,-26368
  2106c0:	10800037 	ldwio	r2,0(r2)
        }
    }
    CardType = ty;
    CS_HIGH(); xchg_spi(0xFF);

    if (ty) Stat &= ~STA_NOINIT; // 初始化成功
  2106c4:	80000c26 	beq	r16,zero,2106f8 <disk_initialize+0x150>
  2106c8:	d0e00003 	ldbu	r3,-32768(gp)
  2106cc:	00bfff84 	movi	r2,-2
  2106d0:	1884703a 	and	r2,r3,r2
  2106d4:	d0a00005 	stb	r2,-32768(gp)
  2106d8:	003fbe06 	br	2105d4 <disk_initialize+0x2c>
DSTATUS disk_initialize (
	BYTE pdrv				/* Physical drive nmuber to identify the drive */
)
{
	BYTE n, ty, ocr[4];
    if (pdrv) return STA_NOINIT;
  2106dc:	00800044 	movi	r2,1

    if (ty) Stat &= ~STA_NOINIT; // 初始化成功
    else Stat |= STA_NOINIT;     // 初始化失敗

    return Stat;
}
  2106e0:	dfc00417 	ldw	ra,16(sp)
  2106e4:	dc800317 	ldw	r18,12(sp)
  2106e8:	dc400217 	ldw	r17,8(sp)
  2106ec:	dc000117 	ldw	r16,4(sp)
  2106f0:	dec00504 	addi	sp,sp,20
  2106f4:	f800283a 	ret
    }
    CardType = ty;
    CS_HIGH(); xchg_spi(0xFF);

    if (ty) Stat &= ~STA_NOINIT; // 初始化成功
    else Stat |= STA_NOINIT;     // 初始化失敗
  2106f8:	d0a00003 	ldbu	r2,-32768(gp)
  2106fc:	10800054 	ori	r2,r2,1
  210700:	d0a00005 	stb	r2,-32768(gp)
  210704:	003fb306 	br	2105d4 <disk_initialize+0x2c>
    CS_HIGH();
    for (n = 10; n; n--) xchg_spi(0xFF); // 發送 80 個 Dummy Clocks 喚醒 SD 卡

    ty = 0;
    if (send_cmd(CMD0, 0) == 1) { // 進入 SPI Idle 狀態
        if (send_cmd(CMD8, 0x1AA) == 1) { // SDv2
  210708:	01000204 	movi	r4,8
  21070c:	01406a84 	movi	r5,426
  210710:	02101f00 	call	2101f0 <send_cmd>
  210714:	10803fcc 	andi	r2,r2,255
  210718:	14003e1e 	bne	r2,r16,210814 <disk_initialize+0x26c>
  21071c:	d823883a 	mov	r17,sp

/*-----------------------------------------------------------------------*/
/* Inidialize a Drive                                                    */
/*-----------------------------------------------------------------------*/

DSTATUS disk_initialize (
  210720:	dc000104 	addi	r16,sp,4
  210724:	d809883a 	mov	r4,sp
#define CS_HIGH()   IOWR_ALTERA_AVALON_SPI_SLAVE_SEL(SD_SPI_BASE, 0)

// 發送並接收 1 個 Byte
static BYTE xchg_spi (BYTE dat) {
    // 1. 等待 TX 準備好：確保 SPI 的發送區有空位 (避免資料覆蓋 Overrun)
    while ((IORD_ALTERA_AVALON_SPI_STATUS(SD_SPI_BASE) & ALTERA_AVALON_SPI_STATUS_TRDY_MSK) == 0);
  210728:	008008f4 	movhi	r2,35
  21072c:	10a64204 	addi	r2,r2,-26360

    // 2. 寫入 TX，啟動硬體時脈傳輸
    IOWR_ALTERA_AVALON_SPI_TXDATA(SD_SPI_BASE, dat);
  210730:	01c03fc4 	movi	r7,255
  210734:	018008f4 	movhi	r6,35
  210738:	31a64104 	addi	r6,r6,-26364
    
    // 3. 等待 RX 準備好：確保 8 個 Clock 確實跑完，且收到 SD 卡的回傳
    while ((IORD_ALTERA_AVALON_SPI_STATUS(SD_SPI_BASE) & ALTERA_AVALON_SPI_STATUS_RRDY_MSK) == 0);
    
    // 4. 讀取 RX 暫存器 (這會自動清除 RRDY 旗標，迎接下一個 Byte)
    return (BYTE)IORD_ALTERA_AVALON_SPI_RXDATA(SD_SPI_BASE);
  21073c:	014008f4 	movhi	r5,35
  210740:	29664004 	addi	r5,r5,-26368
#define CS_HIGH()   IOWR_ALTERA_AVALON_SPI_SLAVE_SEL(SD_SPI_BASE, 0)

// 發送並接收 1 個 Byte
static BYTE xchg_spi (BYTE dat) {
    // 1. 等待 TX 準備好：確保 SPI 的發送區有空位 (避免資料覆蓋 Overrun)
    while ((IORD_ALTERA_AVALON_SPI_STATUS(SD_SPI_BASE) & ALTERA_AVALON_SPI_STATUS_TRDY_MSK) == 0);
  210744:	10c00037 	ldwio	r3,0(r2)
  210748:	18c0100c 	andi	r3,r3,64
  21074c:	183ffd26 	beq	r3,zero,210744 <disk_initialize+0x19c>

    // 2. 寫入 TX，啟動硬體時脈傳輸
    IOWR_ALTERA_AVALON_SPI_TXDATA(SD_SPI_BASE, dat);
  210750:	31c00035 	stwio	r7,0(r6)
    
    // 3. 等待 RX 準備好：確保 8 個 Clock 確實跑完，且收到 SD 卡的回傳
    while ((IORD_ALTERA_AVALON_SPI_STATUS(SD_SPI_BASE) & ALTERA_AVALON_SPI_STATUS_RRDY_MSK) == 0);
  210754:	10c00037 	ldwio	r3,0(r2)
  210758:	18c0200c 	andi	r3,r3,128
  21075c:	183ffd26 	beq	r3,zero,210754 <disk_initialize+0x1ac>
    
    // 4. 讀取 RX 暫存器 (這會自動清除 RRDY 旗標，迎接下一個 Byte)
    return (BYTE)IORD_ALTERA_AVALON_SPI_RXDATA(SD_SPI_BASE);
  210760:	28c00037 	ldwio	r3,0(r5)
  210764:	20c00005 	stb	r3,0(r4)
  210768:	21000044 	addi	r4,r4,1
    for (n = 10; n; n--) xchg_spi(0xFF); // 發送 80 個 Dummy Clocks 喚醒 SD 卡

    ty = 0;
    if (send_cmd(CMD0, 0) == 1) { // 進入 SPI Idle 狀態
        if (send_cmd(CMD8, 0x1AA) == 1) { // SDv2
            for (n = 0; n < 4; n++) ocr[n] = xchg_spi(0xFF);
  21076c:	243ff51e 	bne	r4,r16,210744 <disk_initialize+0x19c>
            if (ocr[2] == 0x01 && ocr[3] == 0xAA) {
  210770:	d8c00083 	ldbu	r3,2(sp)
  210774:	00800044 	movi	r2,1
  210778:	18bfbb1e 	bne	r3,r2,210668 <disk_initialize+0xc0>
  21077c:	d8c000c3 	ldbu	r3,3(sp)
  210780:	00802a84 	movi	r2,170
  210784:	18bfb81e 	bne	r3,r2,210668 <disk_initialize+0xc0>
                while (send_cmd(ACMD41, 1UL << 30)); // 等待初始化完成
  210788:	01002a44 	movi	r4,169
  21078c:	01500034 	movhi	r5,16384
  210790:	02101f00 	call	2101f0 <send_cmd>
  210794:	10803fcc 	andi	r2,r2,255
  210798:	103ffb1e 	bne	r2,zero,210788 <disk_initialize+0x1e0>
                if (send_cmd(CMD58, 0) == 0) {       // 檢查 CCS (判斷是否為 SDHC)
  21079c:	01000e84 	movi	r4,58
  2107a0:	000b883a 	mov	r5,zero
  2107a4:	02101f00 	call	2101f0 <send_cmd>
  2107a8:	10803fcc 	andi	r2,r2,255
  2107ac:	103fae1e 	bne	r2,zero,210668 <disk_initialize+0xc0>
#define CS_HIGH()   IOWR_ALTERA_AVALON_SPI_SLAVE_SEL(SD_SPI_BASE, 0)

// 發送並接收 1 個 Byte
static BYTE xchg_spi (BYTE dat) {
    // 1. 等待 TX 準備好：確保 SPI 的發送區有空位 (避免資料覆蓋 Overrun)
    while ((IORD_ALTERA_AVALON_SPI_STATUS(SD_SPI_BASE) & ALTERA_AVALON_SPI_STATUS_TRDY_MSK) == 0);
  2107b0:	008008f4 	movhi	r2,35
  2107b4:	10a64204 	addi	r2,r2,-26360

    // 2. 寫入 TX，啟動硬體時脈傳輸
    IOWR_ALTERA_AVALON_SPI_TXDATA(SD_SPI_BASE, dat);
  2107b8:	01403fc4 	movi	r5,255
  2107bc:	010008f4 	movhi	r4,35
  2107c0:	21264104 	addi	r4,r4,-26364
    
    // 3. 等待 RX 準備好：確保 8 個 Clock 確實跑完，且收到 SD 卡的回傳
    while ((IORD_ALTERA_AVALON_SPI_STATUS(SD_SPI_BASE) & ALTERA_AVALON_SPI_STATUS_RRDY_MSK) == 0);
    
    // 4. 讀取 RX 暫存器 (這會自動清除 RRDY 旗標，迎接下一個 Byte)
    return (BYTE)IORD_ALTERA_AVALON_SPI_RXDATA(SD_SPI_BASE);
  2107c4:	00c008f4 	movhi	r3,35
  2107c8:	18e64004 	addi	r3,r3,-26368
#define CS_HIGH()   IOWR_ALTERA_AVALON_SPI_SLAVE_SEL(SD_SPI_BASE, 0)

// 發送並接收 1 個 Byte
static BYTE xchg_spi (BYTE dat) {
    // 1. 等待 TX 準備好：確保 SPI 的發送區有空位 (避免資料覆蓋 Overrun)
    while ((IORD_ALTERA_AVALON_SPI_STATUS(SD_SPI_BASE) & ALTERA_AVALON_SPI_STATUS_TRDY_MSK) == 0);
  2107cc:	11800037 	ldwio	r6,0(r2)
  2107d0:	3180100c 	andi	r6,r6,64
  2107d4:	303ffd26 	beq	r6,zero,2107cc <disk_initialize+0x224>

    // 2. 寫入 TX，啟動硬體時脈傳輸
    IOWR_ALTERA_AVALON_SPI_TXDATA(SD_SPI_BASE, dat);
  2107d8:	21400035 	stwio	r5,0(r4)
    
    // 3. 等待 RX 準備好：確保 8 個 Clock 確實跑完，且收到 SD 卡的回傳
    while ((IORD_ALTERA_AVALON_SPI_STATUS(SD_SPI_BASE) & ALTERA_AVALON_SPI_STATUS_RRDY_MSK) == 0);
  2107dc:	11800037 	ldwio	r6,0(r2)
  2107e0:	3180200c 	andi	r6,r6,128
  2107e4:	303ffd26 	beq	r6,zero,2107dc <disk_initialize+0x234>
    
    // 4. 讀取 RX 暫存器 (這會自動清除 RRDY 旗標，迎接下一個 Byte)
    return (BYTE)IORD_ALTERA_AVALON_SPI_RXDATA(SD_SPI_BASE);
  2107e8:	19800037 	ldwio	r6,0(r3)
  2107ec:	89800005 	stb	r6,0(r17)
  2107f0:	8c400044 	addi	r17,r17,1
        if (send_cmd(CMD8, 0x1AA) == 1) { // SDv2
            for (n = 0; n < 4; n++) ocr[n] = xchg_spi(0xFF);
            if (ocr[2] == 0x01 && ocr[3] == 0xAA) {
                while (send_cmd(ACMD41, 1UL << 30)); // 等待初始化完成
                if (send_cmd(CMD58, 0) == 0) {       // 檢查 CCS (判斷是否為 SDHC)
                    for (n = 0; n < 4; n++) ocr[n] = xchg_spi(0xFF);
  2107f4:	847ff51e 	bne	r16,r17,2107cc <disk_initialize+0x224>
                    ty = (ocr[0] & 0x40) ? 12 : 4;   // 12: SDHC, 4: Standard SD
  2107f8:	d8800003 	ldbu	r2,0(sp)
  2107fc:	1080100c 	andi	r2,r2,64
  210800:	10803fcc 	andi	r2,r2,255
  210804:	10001726 	beq	r2,zero,210864 <disk_initialize+0x2bc>
  210808:	04400304 	movi	r17,12
  21080c:	04000304 	movi	r16,12
  210810:	003f9706 	br	210670 <disk_initialize+0xc8>
                }
            }
        } else { // SDv1 or MMC
            ty = (send_cmd(ACMD41, 0) <= 1) ? 2 : 1;
  210814:	01002a44 	movi	r4,169
  210818:	000b883a 	mov	r5,zero
  21081c:	02101f00 	call	2101f0 <send_cmd>
  210820:	10803fcc 	andi	r2,r2,255
  210824:	80800b2e 	bgeu	r16,r2,210854 <disk_initialize+0x2ac>
  210828:	8023883a 	mov	r17,r16
            while (send_cmd(ty == 2 ? ACMD41 : CMD1, 0));
  21082c:	04800084 	movi	r18,2
  210830:	84800626 	beq	r16,r18,21084c <disk_initialize+0x2a4>
  210834:	01000044 	movi	r4,1
  210838:	000b883a 	mov	r5,zero
  21083c:	02101f00 	call	2101f0 <send_cmd>
  210840:	10803fcc 	andi	r2,r2,255
  210844:	103ffa1e 	bne	r2,zero,210830 <disk_initialize+0x288>
  210848:	003f8906 	br	210670 <disk_initialize+0xc8>
  21084c:	01002a44 	movi	r4,169
  210850:	003ff906 	br	210838 <disk_initialize+0x290>
                    for (n = 0; n < 4; n++) ocr[n] = xchg_spi(0xFF);
                    ty = (ocr[0] & 0x40) ? 12 : 4;   // 12: SDHC, 4: Standard SD
                }
            }
        } else { // SDv1 or MMC
            ty = (send_cmd(ACMD41, 0) <= 1) ? 2 : 1;
  210854:	04400084 	movi	r17,2
  210858:	04000084 	movi	r16,2
            while (send_cmd(ty == 2 ? ACMD41 : CMD1, 0));
  21085c:	04800084 	movi	r18,2
  210860:	003ff306 	br	210830 <disk_initialize+0x288>
            for (n = 0; n < 4; n++) ocr[n] = xchg_spi(0xFF);
            if (ocr[2] == 0x01 && ocr[3] == 0xAA) {
                while (send_cmd(ACMD41, 1UL << 30)); // 等待初始化完成
                if (send_cmd(CMD58, 0) == 0) {       // 檢查 CCS (判斷是否為 SDHC)
                    for (n = 0; n < 4; n++) ocr[n] = xchg_spi(0xFF);
                    ty = (ocr[0] & 0x40) ? 12 : 4;   // 12: SDHC, 4: Standard SD
  210864:	04400104 	movi	r17,4
  210868:	04000104 	movi	r16,4
  21086c:	003f8006 	br	210670 <disk_initialize+0xc8>

00210870 <disk_read>:
	BYTE pdrv,		/* Physical drive nmuber to identify the drive */
	BYTE *buff,		/* Data buffer to store read data */
	LBA_t sector,	/* Start sector in LBA */
	UINT count		/* Number of sectors to read */
)
{
  210870:	defff804 	addi	sp,sp,-32
  210874:	dd000615 	stw	r20,24(sp)
  210878:	dfc00715 	stw	ra,28(sp)
  21087c:	dcc00515 	stw	r19,20(sp)
  210880:	dc800415 	stw	r18,16(sp)
  210884:	dc400315 	stw	r17,12(sp)
  210888:	dc000215 	stw	r16,8(sp)
	if (pdrv || !count) return RES_PARERR;
  21088c:	21003fcc 	andi	r4,r4,255
	BYTE pdrv,		/* Physical drive nmuber to identify the drive */
	BYTE *buff,		/* Data buffer to store read data */
	LBA_t sector,	/* Start sector in LBA */
	UINT count		/* Number of sectors to read */
)
{
  210890:	2829883a 	mov	r20,r5
	if (pdrv || !count) return RES_PARERR;
  210894:	20000926 	beq	r4,zero,2108bc <disk_read+0x4c>
  210898:	00800104 	movi	r2,4
        if (!(CardType & 8)) sector += 512; else sector++;
    } while (--count);

    CS_HIGH(); xchg_spi(0xFF);
    return count ? RES_ERROR : RES_OK; // 如果 count 歸零代表全部讀完
}
  21089c:	dfc00717 	ldw	ra,28(sp)
  2108a0:	dd000617 	ldw	r20,24(sp)
  2108a4:	dcc00517 	ldw	r19,20(sp)
  2108a8:	dc800417 	ldw	r18,16(sp)
  2108ac:	dc400317 	ldw	r17,12(sp)
  2108b0:	dc000217 	ldw	r16,8(sp)
  2108b4:	dec00804 	addi	sp,sp,32
  2108b8:	f800283a 	ret
	BYTE *buff,		/* Data buffer to store read data */
	LBA_t sector,	/* Start sector in LBA */
	UINT count		/* Number of sectors to read */
)
{
	if (pdrv || !count) return RES_PARERR;
  2108bc:	383ff626 	beq	r7,zero,210898 <disk_read+0x28>
    if (Stat & STA_NOINIT) return RES_NOTRDY;
  2108c0:	d0a00003 	ldbu	r2,-32768(gp)
  2108c4:	1080004c 	andi	r2,r2,1
  2108c8:	10000226 	beq	r2,zero,2108d4 <disk_read+0x64>
  2108cc:	008000c4 	movi	r2,3
  2108d0:	003ff206 	br	21089c <disk_read+0x2c>
    
    // 如果是舊版標準 SD 卡，要把區塊號碼換算成實際 Byte 位址
    if (!(CardType & 8)) sector *= 512; 
  2108d4:	d0a0e103 	ldbu	r2,-31868(gp)
  2108d8:	1080020c 	andi	r2,r2,8
  2108dc:	10803fcc 	andi	r2,r2,255
  2108e0:	1000011e 	bne	r2,zero,2108e8 <disk_read+0x78>
  2108e4:	300c927a 	slli	r6,r6,9
#define CS_HIGH()   IOWR_ALTERA_AVALON_SPI_SLAVE_SEL(SD_SPI_BASE, 0)

// 發送並接收 1 個 Byte
static BYTE xchg_spi (BYTE dat) {
    // 1. 等待 TX 準備好：確保 SPI 的發送區有空位 (避免資料覆蓋 Overrun)
    while ((IORD_ALTERA_AVALON_SPI_STATUS(SD_SPI_BASE) & ALTERA_AVALON_SPI_STATUS_TRDY_MSK) == 0);
  2108e8:	040008f4 	movhi	r16,35
  2108ec:	84264204 	addi	r16,r16,-26360

    // 2. 寫入 TX，啟動硬體時脈傳輸
    IOWR_ALTERA_AVALON_SPI_TXDATA(SD_SPI_BASE, dat);
  2108f0:	04c03fc4 	movi	r19,255
  2108f4:	048008f4 	movhi	r18,35
  2108f8:	94a64104 	addi	r18,r18,-26364
    
    // 3. 等待 RX 準備好：確保 8 個 Clock 確實跑完，且收到 SD 卡的回傳
    while ((IORD_ALTERA_AVALON_SPI_STATUS(SD_SPI_BASE) & ALTERA_AVALON_SPI_STATUS_RRDY_MSK) == 0);
    
    // 4. 讀取 RX 暫存器 (這會自動清除 RRDY 旗標，迎接下一個 Byte)
    return (BYTE)IORD_ALTERA_AVALON_SPI_RXDATA(SD_SPI_BASE);
  2108fc:	044008f4 	movhi	r17,35
  210900:	8c664004 	addi	r17,r17,-26368
    
    // 如果是舊版標準 SD 卡，要把區塊號碼換算成實際 Byte 位址
    if (!(CardType & 8)) sector *= 512; 

    do {
        if (send_cmd(CMD17, sector) == 0) {   // 讀取單一區塊
  210904:	300b883a 	mov	r5,r6
  210908:	01000444 	movi	r4,17
  21090c:	d9800015 	stw	r6,0(sp)
  210910:	d9c00115 	stw	r7,4(sp)
  210914:	02101f00 	call	2101f0 <send_cmd>
  210918:	10803fcc 	andi	r2,r2,255
  21091c:	d9800017 	ldw	r6,0(sp)
  210920:	d9c00117 	ldw	r7,4(sp)
  210924:	10000f1e 	bne	r2,zero,210964 <disk_read+0xf4>
  210928:	02000234 	movhi	r8,8
  21092c:	42284804 	addi	r8,r8,-24288
            alt_u32 timeout = 500000;
            while (xchg_spi(0xFF) != 0xFE) {  // 等待資料起始標記 (0xFE)
  210930:	00803f84 	movi	r2,254
#define CS_HIGH()   IOWR_ALTERA_AVALON_SPI_SLAVE_SEL(SD_SPI_BASE, 0)

// 發送並接收 1 個 Byte
static BYTE xchg_spi (BYTE dat) {
    // 1. 等待 TX 準備好：確保 SPI 的發送區有空位 (避免資料覆蓋 Overrun)
    while ((IORD_ALTERA_AVALON_SPI_STATUS(SD_SPI_BASE) & ALTERA_AVALON_SPI_STATUS_TRDY_MSK) == 0);
  210934:	80c00037 	ldwio	r3,0(r16)
  210938:	18c0100c 	andi	r3,r3,64
  21093c:	183ffd26 	beq	r3,zero,210934 <disk_read+0xc4>

    // 2. 寫入 TX，啟動硬體時脈傳輸
    IOWR_ALTERA_AVALON_SPI_TXDATA(SD_SPI_BASE, dat);
  210940:	94c00035 	stwio	r19,0(r18)
    
    // 3. 等待 RX 準備好：確保 8 個 Clock 確實跑完，且收到 SD 卡的回傳
    while ((IORD_ALTERA_AVALON_SPI_STATUS(SD_SPI_BASE) & ALTERA_AVALON_SPI_STATUS_RRDY_MSK) == 0);
  210944:	80c00037 	ldwio	r3,0(r16)
  210948:	18c0200c 	andi	r3,r3,128
  21094c:	183ffd26 	beq	r3,zero,210944 <disk_read+0xd4>
    
    // 4. 讀取 RX 暫存器 (這會自動清除 RRDY 旗標，迎接下一個 Byte)
    return (BYTE)IORD_ALTERA_AVALON_SPI_RXDATA(SD_SPI_BASE);
  210950:	88c00037 	ldwio	r3,0(r17)
    if (!(CardType & 8)) sector *= 512; 

    do {
        if (send_cmd(CMD17, sector) == 0) {   // 讀取單一區塊
            alt_u32 timeout = 500000;
            while (xchg_spi(0xFF) != 0xFE) {  // 等待資料起始標記 (0xFE)
  210954:	18c03fcc 	andi	r3,r3,255
  210958:	18801826 	beq	r3,r2,2109bc <disk_read+0x14c>
  21095c:	423fffc4 	addi	r8,r8,-1
                if (--timeout == 0) break;
  210960:	403ff41e 	bne	r8,zero,210934 <disk_read+0xc4>
  210964:	3804c03a 	cmpne	r2,r7,zero
        
        // 準備讀取下一個區塊
        if (!(CardType & 8)) sector += 512; else sector++;
    } while (--count);

    CS_HIGH(); xchg_spi(0xFF);
  210968:	00c008f4 	movhi	r3,35
  21096c:	18e64504 	addi	r3,r3,-26348
  210970:	18000035 	stwio	zero,0(r3)
#define CS_HIGH()   IOWR_ALTERA_AVALON_SPI_SLAVE_SEL(SD_SPI_BASE, 0)

// 發送並接收 1 個 Byte
static BYTE xchg_spi (BYTE dat) {
    // 1. 等待 TX 準備好：確保 SPI 的發送區有空位 (避免資料覆蓋 Overrun)
    while ((IORD_ALTERA_AVALON_SPI_STATUS(SD_SPI_BASE) & ALTERA_AVALON_SPI_STATUS_TRDY_MSK) == 0);
  210974:	010008f4 	movhi	r4,35
  210978:	21264204 	addi	r4,r4,-26360
  21097c:	20c00037 	ldwio	r3,0(r4)
  210980:	18c0100c 	andi	r3,r3,64
  210984:	183ffd26 	beq	r3,zero,21097c <disk_read+0x10c>

    // 2. 寫入 TX，啟動硬體時脈傳輸
    IOWR_ALTERA_AVALON_SPI_TXDATA(SD_SPI_BASE, dat);
  210988:	00c008f4 	movhi	r3,35
  21098c:	18e64104 	addi	r3,r3,-26364
  210990:	01003fc4 	movi	r4,255
  210994:	19000035 	stwio	r4,0(r3)
    
    // 3. 等待 RX 準備好：確保 8 個 Clock 確實跑完，且收到 SD 卡的回傳
    while ((IORD_ALTERA_AVALON_SPI_STATUS(SD_SPI_BASE) & ALTERA_AVALON_SPI_STATUS_RRDY_MSK) == 0);
  210998:	010008f4 	movhi	r4,35
  21099c:	21264204 	addi	r4,r4,-26360
  2109a0:	20c00037 	ldwio	r3,0(r4)
  2109a4:	18c0200c 	andi	r3,r3,128
  2109a8:	183ffd26 	beq	r3,zero,2109a0 <disk_read+0x130>
    
    // 4. 讀取 RX 暫存器 (這會自動清除 RRDY 旗標，迎接下一個 Byte)
    return (BYTE)IORD_ALTERA_AVALON_SPI_RXDATA(SD_SPI_BASE);
  2109ac:	00c008f4 	movhi	r3,35
  2109b0:	18e64004 	addi	r3,r3,-26368
  2109b4:	18c00037 	ldwio	r3,0(r3)
        // 準備讀取下一個區塊
        if (!(CardType & 8)) sector += 512; else sector++;
    } while (--count);

    CS_HIGH(); xchg_spi(0xFF);
    return count ? RES_ERROR : RES_OK; // 如果 count 歸零代表全部讀完
  2109b8:	003fb806 	br	21089c <disk_read+0x2c>
        if (send_cmd(CMD17, sector) == 0) {   // 讀取單一區塊
            alt_u32 timeout = 500000;
            while (xchg_spi(0xFF) != 0xFE) {  // 等待資料起始標記 (0xFE)
                if (--timeout == 0) break;
            }
            if (timeout == 0) break;          // 超時錯誤
  2109bc:	403fe926 	beq	r8,zero,210964 <disk_read+0xf4>

/*-----------------------------------------------------------------------*/
/* Read Sector(s)                                                        */
/*-----------------------------------------------------------------------*/

DRESULT disk_read (
  2109c0:	a2008004 	addi	r8,r20,512
  2109c4:	a009883a 	mov	r4,r20
#define CS_HIGH()   IOWR_ALTERA_AVALON_SPI_SLAVE_SEL(SD_SPI_BASE, 0)

// 發送並接收 1 個 Byte
static BYTE xchg_spi (BYTE dat) {
    // 1. 等待 TX 準備好：確保 SPI 的發送區有空位 (避免資料覆蓋 Overrun)
    while ((IORD_ALTERA_AVALON_SPI_STATUS(SD_SPI_BASE) & ALTERA_AVALON_SPI_STATUS_TRDY_MSK) == 0);
  2109c8:	80c00037 	ldwio	r3,0(r16)
  2109cc:	18c0100c 	andi	r3,r3,64
  2109d0:	183ffd26 	beq	r3,zero,2109c8 <disk_read+0x158>

    // 2. 寫入 TX，啟動硬體時脈傳輸
    IOWR_ALTERA_AVALON_SPI_TXDATA(SD_SPI_BASE, dat);
  2109d4:	94c00035 	stwio	r19,0(r18)
    
    // 3. 等待 RX 準備好：確保 8 個 Clock 確實跑完，且收到 SD 卡的回傳
    while ((IORD_ALTERA_AVALON_SPI_STATUS(SD_SPI_BASE) & ALTERA_AVALON_SPI_STATUS_RRDY_MSK) == 0);
  2109d8:	80c00037 	ldwio	r3,0(r16)
  2109dc:	18c0200c 	andi	r3,r3,128
  2109e0:	183ffd26 	beq	r3,zero,2109d8 <disk_read+0x168>
    
    // 4. 讀取 RX 暫存器 (這會自動清除 RRDY 旗標，迎接下一個 Byte)
    return (BYTE)IORD_ALTERA_AVALON_SPI_RXDATA(SD_SPI_BASE);
  2109e4:	88c00037 	ldwio	r3,0(r17)
  2109e8:	20c00005 	stb	r3,0(r4)
            }
            if (timeout == 0) break;          // 超時錯誤

            int i;
            for (i = 0; i < 512; i++) {
                *buff++ = xchg_spi(0xFF);     // 連續讀取 512 Bytes 進入指標
  2109ec:	21000044 	addi	r4,r4,1
                if (--timeout == 0) break;
            }
            if (timeout == 0) break;          // 超時錯誤

            int i;
            for (i = 0; i < 512; i++) {
  2109f0:	223ff51e 	bne	r4,r8,2109c8 <disk_read+0x158>
  2109f4:	2029883a 	mov	r20,r4
#define CS_HIGH()   IOWR_ALTERA_AVALON_SPI_SLAVE_SEL(SD_SPI_BASE, 0)

// 發送並接收 1 個 Byte
static BYTE xchg_spi (BYTE dat) {
    // 1. 等待 TX 準備好：確保 SPI 的發送區有空位 (避免資料覆蓋 Overrun)
    while ((IORD_ALTERA_AVALON_SPI_STATUS(SD_SPI_BASE) & ALTERA_AVALON_SPI_STATUS_TRDY_MSK) == 0);
  2109f8:	80800037 	ldwio	r2,0(r16)
  2109fc:	1080100c 	andi	r2,r2,64
  210a00:	103ffd26 	beq	r2,zero,2109f8 <disk_read+0x188>

    // 2. 寫入 TX，啟動硬體時脈傳輸
    IOWR_ALTERA_AVALON_SPI_TXDATA(SD_SPI_BASE, dat);
  210a04:	94c00035 	stwio	r19,0(r18)
    
    // 3. 等待 RX 準備好：確保 8 個 Clock 確實跑完，且收到 SD 卡的回傳
    while ((IORD_ALTERA_AVALON_SPI_STATUS(SD_SPI_BASE) & ALTERA_AVALON_SPI_STATUS_RRDY_MSK) == 0);
  210a08:	80800037 	ldwio	r2,0(r16)
  210a0c:	1080200c 	andi	r2,r2,128
  210a10:	103ffd26 	beq	r2,zero,210a08 <disk_read+0x198>
    
    // 4. 讀取 RX 暫存器 (這會自動清除 RRDY 旗標，迎接下一個 Byte)
    return (BYTE)IORD_ALTERA_AVALON_SPI_RXDATA(SD_SPI_BASE);
  210a14:	88800037 	ldwio	r2,0(r17)
#define CS_HIGH()   IOWR_ALTERA_AVALON_SPI_SLAVE_SEL(SD_SPI_BASE, 0)

// 發送並接收 1 個 Byte
static BYTE xchg_spi (BYTE dat) {
    // 1. 等待 TX 準備好：確保 SPI 的發送區有空位 (避免資料覆蓋 Overrun)
    while ((IORD_ALTERA_AVALON_SPI_STATUS(SD_SPI_BASE) & ALTERA_AVALON_SPI_STATUS_TRDY_MSK) == 0);
  210a18:	80800037 	ldwio	r2,0(r16)
  210a1c:	1080100c 	andi	r2,r2,64
  210a20:	103ffd26 	beq	r2,zero,210a18 <disk_read+0x1a8>

    // 2. 寫入 TX，啟動硬體時脈傳輸
    IOWR_ALTERA_AVALON_SPI_TXDATA(SD_SPI_BASE, dat);
  210a24:	94c00035 	stwio	r19,0(r18)
    
    // 3. 等待 RX 準備好：確保 8 個 Clock 確實跑完，且收到 SD 卡的回傳
    while ((IORD_ALTERA_AVALON_SPI_STATUS(SD_SPI_BASE) & ALTERA_AVALON_SPI_STATUS_RRDY_MSK) == 0);
  210a28:	80800037 	ldwio	r2,0(r16)
  210a2c:	1080200c 	andi	r2,r2,128
  210a30:	103ffd26 	beq	r2,zero,210a28 <disk_read+0x1b8>
    
    // 4. 讀取 RX 暫存器 (這會自動清除 RRDY 旗標，迎接下一個 Byte)
    return (BYTE)IORD_ALTERA_AVALON_SPI_RXDATA(SD_SPI_BASE);
  210a34:	88800037 	ldwio	r2,0(r17)
        } else {
            break; // 指令發送失敗
        }
        
        // 準備讀取下一個區塊
        if (!(CardType & 8)) sector += 512; else sector++;
  210a38:	d0a0e103 	ldbu	r2,-31868(gp)
  210a3c:	1080020c 	andi	r2,r2,8
  210a40:	10803fcc 	andi	r2,r2,255
  210a44:	1000051e 	bne	r2,zero,210a5c <disk_read+0x1ec>
  210a48:	31808004 	addi	r6,r6,512
    } while (--count);
  210a4c:	39ffffc4 	addi	r7,r7,-1
  210a50:	383fac1e 	bne	r7,zero,210904 <disk_read+0x94>
  210a54:	0005883a 	mov	r2,zero
  210a58:	003fc306 	br	210968 <disk_read+0xf8>
        } else {
            break; // 指令發送失敗
        }
        
        // 準備讀取下一個區塊
        if (!(CardType & 8)) sector += 512; else sector++;
  210a5c:	31800044 	addi	r6,r6,1
  210a60:	003ffa06 	br	210a4c <disk_read+0x1dc>

00210a64 <disk_write>:
	BYTE pdrv,			/* Physical drive nmuber to identify the drive */
	const BYTE *buff,	/* Data to be written */
	LBA_t sector,		/* Start sector in LBA */
	UINT count			/* Number of sectors to write */
)
{
  210a64:	defff704 	addi	sp,sp,-36
  210a68:	dd400715 	stw	r21,28(sp)
  210a6c:	dfc00815 	stw	ra,32(sp)
  210a70:	dd000615 	stw	r20,24(sp)
  210a74:	dcc00515 	stw	r19,20(sp)
  210a78:	dc800415 	stw	r18,16(sp)
  210a7c:	dc400315 	stw	r17,12(sp)
  210a80:	dc000215 	stw	r16,8(sp)
	if (pdrv || !count) return RES_PARERR;
  210a84:	21003fcc 	andi	r4,r4,255
	BYTE pdrv,			/* Physical drive nmuber to identify the drive */
	const BYTE *buff,	/* Data to be written */
	LBA_t sector,		/* Start sector in LBA */
	UINT count			/* Number of sectors to write */
)
{
  210a88:	282b883a 	mov	r21,r5
	if (pdrv || !count) return RES_PARERR;
  210a8c:	20000a26 	beq	r4,zero,210ab8 <disk_write+0x54>
  210a90:	00800104 	movi	r2,4
        if (!(CardType & 8)) sector += 512; else sector++;
    } while (--count);

    CS_HIGH(); xchg_spi(0xFF);
    return count ? RES_ERROR : RES_OK;
}
  210a94:	dfc00817 	ldw	ra,32(sp)
  210a98:	dd400717 	ldw	r21,28(sp)
  210a9c:	dd000617 	ldw	r20,24(sp)
  210aa0:	dcc00517 	ldw	r19,20(sp)
  210aa4:	dc800417 	ldw	r18,16(sp)
  210aa8:	dc400317 	ldw	r17,12(sp)
  210aac:	dc000217 	ldw	r16,8(sp)
  210ab0:	dec00904 	addi	sp,sp,36
  210ab4:	f800283a 	ret
	const BYTE *buff,	/* Data to be written */
	LBA_t sector,		/* Start sector in LBA */
	UINT count			/* Number of sectors to write */
)
{
	if (pdrv || !count) return RES_PARERR;
  210ab8:	383ff526 	beq	r7,zero,210a90 <disk_write+0x2c>
    if (Stat & STA_NOINIT) return RES_NOTRDY;
  210abc:	d0a00003 	ldbu	r2,-32768(gp)
  210ac0:	1080004c 	andi	r2,r2,1
  210ac4:	10000226 	beq	r2,zero,210ad0 <disk_write+0x6c>
  210ac8:	008000c4 	movi	r2,3
  210acc:	003ff106 	br	210a94 <disk_write+0x30>
    
    if (!(CardType & 8)) sector *= 512; 
  210ad0:	d0a0e103 	ldbu	r2,-31868(gp)
  210ad4:	1080020c 	andi	r2,r2,8
  210ad8:	10803fcc 	andi	r2,r2,255
  210adc:	10006e26 	beq	r2,zero,210c98 <disk_write+0x234>
#define CS_HIGH()   IOWR_ALTERA_AVALON_SPI_SLAVE_SEL(SD_SPI_BASE, 0)

// 發送並接收 1 個 Byte
static BYTE xchg_spi (BYTE dat) {
    // 1. 等待 TX 準備好：確保 SPI 的發送區有空位 (避免資料覆蓋 Overrun)
    while ((IORD_ALTERA_AVALON_SPI_STATUS(SD_SPI_BASE) & ALTERA_AVALON_SPI_STATUS_TRDY_MSK) == 0);
  210ae0:	040008f4 	movhi	r16,35
  210ae4:	84264204 	addi	r16,r16,-26360

    // 2. 寫入 TX，啟動硬體時脈傳輸
    IOWR_ALTERA_AVALON_SPI_TXDATA(SD_SPI_BASE, dat);
  210ae8:	05003fc4 	movi	r20,255
  210aec:	04c008f4 	movhi	r19,35
  210af0:	9ce64104 	addi	r19,r19,-26364
    
    // 3. 等待 RX 準備好：確保 8 個 Clock 確實跑完，且收到 SD 卡的回傳
    while ((IORD_ALTERA_AVALON_SPI_STATUS(SD_SPI_BASE) & ALTERA_AVALON_SPI_STATUS_RRDY_MSK) == 0);
    
    // 4. 讀取 RX 暫存器 (這會自動清除 RRDY 旗標，迎接下一個 Byte)
    return (BYTE)IORD_ALTERA_AVALON_SPI_RXDATA(SD_SPI_BASE);
  210af4:	048008f4 	movhi	r18,35
  210af8:	94a64004 	addi	r18,r18,-26368
static BYTE xchg_spi (BYTE dat) {
    // 1. 等待 TX 準備好：確保 SPI 的發送區有空位 (避免資料覆蓋 Overrun)
    while ((IORD_ALTERA_AVALON_SPI_STATUS(SD_SPI_BASE) & ALTERA_AVALON_SPI_STATUS_TRDY_MSK) == 0);

    // 2. 寫入 TX，啟動硬體時脈傳輸
    IOWR_ALTERA_AVALON_SPI_TXDATA(SD_SPI_BASE, dat);
  210afc:	04403f84 	movi	r17,254
    if (Stat & STA_NOINIT) return RES_NOTRDY;
    
    if (!(CardType & 8)) sector *= 512; 

    do {
        if (send_cmd(CMD24, sector) == 0) {   // 寫入單一區塊
  210b00:	300b883a 	mov	r5,r6
  210b04:	01000604 	movi	r4,24
  210b08:	d9800015 	stw	r6,0(sp)
  210b0c:	d9c00115 	stw	r7,4(sp)
  210b10:	02101f00 	call	2101f0 <send_cmd>
  210b14:	10803fcc 	andi	r2,r2,255
  210b18:	d9800017 	ldw	r6,0(sp)
  210b1c:	d9c00117 	ldw	r7,4(sp)
  210b20:	1000611e 	bne	r2,zero,210ca8 <disk_write+0x244>
#define CS_HIGH()   IOWR_ALTERA_AVALON_SPI_SLAVE_SEL(SD_SPI_BASE, 0)

// 發送並接收 1 個 Byte
static BYTE xchg_spi (BYTE dat) {
    // 1. 等待 TX 準備好：確保 SPI 的發送區有空位 (避免資料覆蓋 Overrun)
    while ((IORD_ALTERA_AVALON_SPI_STATUS(SD_SPI_BASE) & ALTERA_AVALON_SPI_STATUS_TRDY_MSK) == 0);
  210b24:	80800037 	ldwio	r2,0(r16)
  210b28:	1080100c 	andi	r2,r2,64
  210b2c:	103ffd26 	beq	r2,zero,210b24 <disk_write+0xc0>

    // 2. 寫入 TX，啟動硬體時脈傳輸
    IOWR_ALTERA_AVALON_SPI_TXDATA(SD_SPI_BASE, dat);
  210b30:	9d000035 	stwio	r20,0(r19)
    
    // 3. 等待 RX 準備好：確保 8 個 Clock 確實跑完，且收到 SD 卡的回傳
    while ((IORD_ALTERA_AVALON_SPI_STATUS(SD_SPI_BASE) & ALTERA_AVALON_SPI_STATUS_RRDY_MSK) == 0);
  210b34:	80800037 	ldwio	r2,0(r16)
  210b38:	1080200c 	andi	r2,r2,128
  210b3c:	103ffd26 	beq	r2,zero,210b34 <disk_write+0xd0>
    
    // 4. 讀取 RX 暫存器 (這會自動清除 RRDY 旗標，迎接下一個 Byte)
    return (BYTE)IORD_ALTERA_AVALON_SPI_RXDATA(SD_SPI_BASE);
  210b40:	90800037 	ldwio	r2,0(r18)
#define CS_HIGH()   IOWR_ALTERA_AVALON_SPI_SLAVE_SEL(SD_SPI_BASE, 0)

// 發送並接收 1 個 Byte
static BYTE xchg_spi (BYTE dat) {
    // 1. 等待 TX 準備好：確保 SPI 的發送區有空位 (避免資料覆蓋 Overrun)
    while ((IORD_ALTERA_AVALON_SPI_STATUS(SD_SPI_BASE) & ALTERA_AVALON_SPI_STATUS_TRDY_MSK) == 0);
  210b44:	80800037 	ldwio	r2,0(r16)
  210b48:	1080100c 	andi	r2,r2,64
  210b4c:	103ffd26 	beq	r2,zero,210b44 <disk_write+0xe0>

    // 2. 寫入 TX，啟動硬體時脈傳輸
    IOWR_ALTERA_AVALON_SPI_TXDATA(SD_SPI_BASE, dat);
  210b50:	9c400035 	stwio	r17,0(r19)
    
    // 3. 等待 RX 準備好：確保 8 個 Clock 確實跑完，且收到 SD 卡的回傳
    while ((IORD_ALTERA_AVALON_SPI_STATUS(SD_SPI_BASE) & ALTERA_AVALON_SPI_STATUS_RRDY_MSK) == 0);
  210b54:	80800037 	ldwio	r2,0(r16)
  210b58:	1080200c 	andi	r2,r2,128
  210b5c:	103ffd26 	beq	r2,zero,210b54 <disk_write+0xf0>
    
    // 4. 讀取 RX 暫存器 (這會自動清除 RRDY 旗標，迎接下一個 Byte)
    return (BYTE)IORD_ALTERA_AVALON_SPI_RXDATA(SD_SPI_BASE);
  210b60:	90800037 	ldwio	r2,0(r18)
/* Write Sector(s)                                                       */
/*-----------------------------------------------------------------------*/

#if FF_FS_READONLY == 0

DRESULT disk_write (
  210b64:	aa408004 	addi	r9,r21,512
  210b68:	a809883a 	mov	r4,r21
            xchg_spi(0xFF); 
            xchg_spi(0xFE);                   // 發送資料起始標記 (0xFE)
            
            int i;
            for (i = 0; i < 512; i++) {
                xchg_spi(*buff++);            // 連續寫入 512 Bytes
  210b6c:	22000003 	ldbu	r8,0(r4)
  210b70:	21000044 	addi	r4,r4,1
#define CS_HIGH()   IOWR_ALTERA_AVALON_SPI_SLAVE_SEL(SD_SPI_BASE, 0)

// 發送並接收 1 個 Byte
static BYTE xchg_spi (BYTE dat) {
    // 1. 等待 TX 準備好：確保 SPI 的發送區有空位 (避免資料覆蓋 Overrun)
    while ((IORD_ALTERA_AVALON_SPI_STATUS(SD_SPI_BASE) & ALTERA_AVALON_SPI_STATUS_TRDY_MSK) == 0);
  210b74:	80c00037 	ldwio	r3,0(r16)
  210b78:	18c0100c 	andi	r3,r3,64
  210b7c:	183ffd26 	beq	r3,zero,210b74 <disk_write+0x110>

    // 2. 寫入 TX，啟動硬體時脈傳輸
    IOWR_ALTERA_AVALON_SPI_TXDATA(SD_SPI_BASE, dat);
  210b80:	40c03fcc 	andi	r3,r8,255
  210b84:	98c00035 	stwio	r3,0(r19)
    
    // 3. 等待 RX 準備好：確保 8 個 Clock 確實跑完，且收到 SD 卡的回傳
    while ((IORD_ALTERA_AVALON_SPI_STATUS(SD_SPI_BASE) & ALTERA_AVALON_SPI_STATUS_RRDY_MSK) == 0);
  210b88:	80c00037 	ldwio	r3,0(r16)
  210b8c:	18c0200c 	andi	r3,r3,128
  210b90:	183ffd26 	beq	r3,zero,210b88 <disk_write+0x124>
    
    // 4. 讀取 RX 暫存器 (這會自動清除 RRDY 旗標，迎接下一個 Byte)
    return (BYTE)IORD_ALTERA_AVALON_SPI_RXDATA(SD_SPI_BASE);
  210b94:	90c00037 	ldwio	r3,0(r18)
        if (send_cmd(CMD24, sector) == 0) {   // 寫入單一區塊
            xchg_spi(0xFF); 
            xchg_spi(0xFE);                   // 發送資料起始標記 (0xFE)
            
            int i;
            for (i = 0; i < 512; i++) {
  210b98:	227ff41e 	bne	r4,r9,210b6c <disk_write+0x108>
  210b9c:	202b883a 	mov	r21,r4
#define CS_HIGH()   IOWR_ALTERA_AVALON_SPI_SLAVE_SEL(SD_SPI_BASE, 0)

// 發送並接收 1 個 Byte
static BYTE xchg_spi (BYTE dat) {
    // 1. 等待 TX 準備好：確保 SPI 的發送區有空位 (避免資料覆蓋 Overrun)
    while ((IORD_ALTERA_AVALON_SPI_STATUS(SD_SPI_BASE) & ALTERA_AVALON_SPI_STATUS_TRDY_MSK) == 0);
  210ba0:	80800037 	ldwio	r2,0(r16)
  210ba4:	1080100c 	andi	r2,r2,64
  210ba8:	103ffd26 	beq	r2,zero,210ba0 <disk_write+0x13c>

    // 2. 寫入 TX，啟動硬體時脈傳輸
    IOWR_ALTERA_AVALON_SPI_TXDATA(SD_SPI_BASE, dat);
  210bac:	9d000035 	stwio	r20,0(r19)
    
    // 3. 等待 RX 準備好：確保 8 個 Clock 確實跑完，且收到 SD 卡的回傳
    while ((IORD_ALTERA_AVALON_SPI_STATUS(SD_SPI_BASE) & ALTERA_AVALON_SPI_STATUS_RRDY_MSK) == 0);
  210bb0:	80800037 	ldwio	r2,0(r16)
  210bb4:	1080200c 	andi	r2,r2,128
  210bb8:	103ffd26 	beq	r2,zero,210bb0 <disk_write+0x14c>
    
    // 4. 讀取 RX 暫存器 (這會自動清除 RRDY 旗標，迎接下一個 Byte)
    return (BYTE)IORD_ALTERA_AVALON_SPI_RXDATA(SD_SPI_BASE);
  210bbc:	90800037 	ldwio	r2,0(r18)
#define CS_HIGH()   IOWR_ALTERA_AVALON_SPI_SLAVE_SEL(SD_SPI_BASE, 0)

// 發送並接收 1 個 Byte
static BYTE xchg_spi (BYTE dat) {
    // 1. 等待 TX 準備好：確保 SPI 的發送區有空位 (避免資料覆蓋 Overrun)
    while ((IORD_ALTERA_AVALON_SPI_STATUS(SD_SPI_BASE) & ALTERA_AVALON_SPI_STATUS_TRDY_MSK) == 0);
  210bc0:	80800037 	ldwio	r2,0(r16)
  210bc4:	1080100c 	andi	r2,r2,64
  210bc8:	103ffd26 	beq	r2,zero,210bc0 <disk_write+0x15c>

    // 2. 寫入 TX，啟動硬體時脈傳輸
    IOWR_ALTERA_AVALON_SPI_TXDATA(SD_SPI_BASE, dat);
  210bcc:	9d000035 	stwio	r20,0(r19)
    
    // 3. 等待 RX 準備好：確保 8 個 Clock 確實跑完，且收到 SD 卡的回傳
    while ((IORD_ALTERA_AVALON_SPI_STATUS(SD_SPI_BASE) & ALTERA_AVALON_SPI_STATUS_RRDY_MSK) == 0);
  210bd0:	80800037 	ldwio	r2,0(r16)
  210bd4:	1080200c 	andi	r2,r2,128
  210bd8:	103ffd26 	beq	r2,zero,210bd0 <disk_write+0x16c>
    
    // 4. 讀取 RX 暫存器 (這會自動清除 RRDY 旗標，迎接下一個 Byte)
    return (BYTE)IORD_ALTERA_AVALON_SPI_RXDATA(SD_SPI_BASE);
  210bdc:	90800037 	ldwio	r2,0(r18)
#define CS_HIGH()   IOWR_ALTERA_AVALON_SPI_SLAVE_SEL(SD_SPI_BASE, 0)

// 發送並接收 1 個 Byte
static BYTE xchg_spi (BYTE dat) {
    // 1. 等待 TX 準備好：確保 SPI 的發送區有空位 (避免資料覆蓋 Overrun)
    while ((IORD_ALTERA_AVALON_SPI_STATUS(SD_SPI_BASE) & ALTERA_AVALON_SPI_STATUS_TRDY_MSK) == 0);
  210be0:	80c00037 	ldwio	r3,0(r16)
  210be4:	18c0100c 	andi	r3,r3,64
  210be8:	183ffd26 	beq	r3,zero,210be0 <disk_write+0x17c>

    // 2. 寫入 TX，啟動硬體時脈傳輸
    IOWR_ALTERA_AVALON_SPI_TXDATA(SD_SPI_BASE, dat);
  210bec:	9d000035 	stwio	r20,0(r19)
    
    // 3. 等待 RX 準備好：確保 8 個 Clock 確實跑完，且收到 SD 卡的回傳
    while ((IORD_ALTERA_AVALON_SPI_STATUS(SD_SPI_BASE) & ALTERA_AVALON_SPI_STATUS_RRDY_MSK) == 0);
  210bf0:	80c00037 	ldwio	r3,0(r16)
  210bf4:	18c0200c 	andi	r3,r3,128
  210bf8:	183ffd26 	beq	r3,zero,210bf0 <disk_write+0x18c>
    
    // 4. 讀取 RX 暫存器 (這會自動清除 RRDY 旗標，迎接下一個 Byte)
    return (BYTE)IORD_ALTERA_AVALON_SPI_RXDATA(SD_SPI_BASE);
  210bfc:	90c00037 	ldwio	r3,0(r18)
            for (i = 0; i < 512; i++) {
                xchg_spi(*buff++);            // 連續寫入 512 Bytes
            }
            xchg_spi(0xFF); xchg_spi(0xFF);   // 發送 2 Bytes 的 Dummy CRC
            
            if ((xchg_spi(0xFF) & 0x1F) == 0x05) { // 檢查是否成功被卡片接收
  210c00:	00800144 	movi	r2,5
  210c04:	18c007cc 	andi	r3,r3,31
  210c08:	1880271e 	bne	r3,r2,210ca8 <disk_write+0x244>
                if (!wait_ready()) break;          // 等待卡片將資料寫入快閃記憶體
  210c0c:	d9800015 	stw	r6,0(sp)
  210c10:	d9c00115 	stw	r7,4(sp)
  210c14:	021018c0 	call	21018c <wait_ready>
  210c18:	d9800017 	ldw	r6,0(sp)
  210c1c:	d9c00117 	ldw	r7,4(sp)
  210c20:	10002126 	beq	r2,zero,210ca8 <disk_write+0x244>
        } else {
            break; // 指令發送失敗
        }
        
        // 準備寫入下一個區塊
        if (!(CardType & 8)) sector += 512; else sector++;
  210c24:	d0a0e103 	ldbu	r2,-31868(gp)
  210c28:	1080020c 	andi	r2,r2,8
  210c2c:	10803fcc 	andi	r2,r2,255
  210c30:	10001b1e 	bne	r2,zero,210ca0 <disk_write+0x23c>
  210c34:	31808004 	addi	r6,r6,512
    } while (--count);
  210c38:	39ffffc4 	addi	r7,r7,-1
  210c3c:	383fb01e 	bne	r7,zero,210b00 <disk_write+0x9c>
  210c40:	0005883a 	mov	r2,zero

    CS_HIGH(); xchg_spi(0xFF);
  210c44:	00c008f4 	movhi	r3,35
  210c48:	18e64504 	addi	r3,r3,-26348
  210c4c:	18000035 	stwio	zero,0(r3)
#define CS_HIGH()   IOWR_ALTERA_AVALON_SPI_SLAVE_SEL(SD_SPI_BASE, 0)

// 發送並接收 1 個 Byte
static BYTE xchg_spi (BYTE dat) {
    // 1. 等待 TX 準備好：確保 SPI 的發送區有空位 (避免資料覆蓋 Overrun)
    while ((IORD_ALTERA_AVALON_SPI_STATUS(SD_SPI_BASE) & ALTERA_AVALON_SPI_STATUS_TRDY_MSK) == 0);
  210c50:	010008f4 	movhi	r4,35
  210c54:	21264204 	addi	r4,r4,-26360
  210c58:	20c00037 	ldwio	r3,0(r4)
  210c5c:	18c0100c 	andi	r3,r3,64
  210c60:	183ffd26 	beq	r3,zero,210c58 <disk_write+0x1f4>

    // 2. 寫入 TX，啟動硬體時脈傳輸
    IOWR_ALTERA_AVALON_SPI_TXDATA(SD_SPI_BASE, dat);
  210c64:	00c008f4 	movhi	r3,35
  210c68:	18e64104 	addi	r3,r3,-26364
  210c6c:	01003fc4 	movi	r4,255
  210c70:	19000035 	stwio	r4,0(r3)
    
    // 3. 等待 RX 準備好：確保 8 個 Clock 確實跑完，且收到 SD 卡的回傳
    while ((IORD_ALTERA_AVALON_SPI_STATUS(SD_SPI_BASE) & ALTERA_AVALON_SPI_STATUS_RRDY_MSK) == 0);
  210c74:	010008f4 	movhi	r4,35
  210c78:	21264204 	addi	r4,r4,-26360
  210c7c:	20c00037 	ldwio	r3,0(r4)
  210c80:	18c0200c 	andi	r3,r3,128
  210c84:	183ffd26 	beq	r3,zero,210c7c <disk_write+0x218>
    
    // 4. 讀取 RX 暫存器 (這會自動清除 RRDY 旗標，迎接下一個 Byte)
    return (BYTE)IORD_ALTERA_AVALON_SPI_RXDATA(SD_SPI_BASE);
  210c88:	00c008f4 	movhi	r3,35
  210c8c:	18e64004 	addi	r3,r3,-26368
  210c90:	18c00037 	ldwio	r3,0(r3)
        // 準備寫入下一個區塊
        if (!(CardType & 8)) sector += 512; else sector++;
    } while (--count);

    CS_HIGH(); xchg_spi(0xFF);
    return count ? RES_ERROR : RES_OK;
  210c94:	003f7f06 	br	210a94 <disk_write+0x30>
)
{
	if (pdrv || !count) return RES_PARERR;
    if (Stat & STA_NOINIT) return RES_NOTRDY;
    
    if (!(CardType & 8)) sector *= 512; 
  210c98:	300c927a 	slli	r6,r6,9
  210c9c:	003f9006 	br	210ae0 <disk_write+0x7c>
        } else {
            break; // 指令發送失敗
        }
        
        // 準備寫入下一個區塊
        if (!(CardType & 8)) sector += 512; else sector++;
  210ca0:	31800044 	addi	r6,r6,1
  210ca4:	003fe406 	br	210c38 <disk_write+0x1d4>
  210ca8:	3804c03a 	cmpne	r2,r7,zero
  210cac:	003fe506 	br	210c44 <disk_write+0x1e0>

00210cb0 <disk_ioctl>:
DRESULT disk_ioctl (
	BYTE pdrv,		/* Physical drive nmuber (0..) */
	BYTE cmd,		/* Control code */
	void *buff		/* Buffer to send/receive control data */
)
{
  210cb0:	defffe04 	addi	sp,sp,-8
  210cb4:	dfc00115 	stw	ra,4(sp)
  210cb8:	dc000015 	stw	r16,0(sp)
	if (pdrv) return RES_PARERR;
  210cbc:	21003fcc 	andi	r4,r4,255
  210cc0:	20000526 	beq	r4,zero,210cd8 <disk_ioctl+0x28>
  210cc4:	00800104 	movi	r2,4
            CS_HIGH();
            return RES_OK;
        }
    }
    return RES_ERROR;
}
  210cc8:	dfc00117 	ldw	ra,4(sp)
  210ccc:	dc000017 	ldw	r16,0(sp)
  210cd0:	dec00204 	addi	sp,sp,8
  210cd4:	f800283a 	ret
	BYTE cmd,		/* Control code */
	void *buff		/* Buffer to send/receive control data */
)
{
	if (pdrv) return RES_PARERR;
    if (Stat & STA_NOINIT) return RES_NOTRDY;
  210cd8:	d0a00003 	ldbu	r2,-32768(gp)
  210cdc:	1080004c 	andi	r2,r2,1
  210ce0:	10000526 	beq	r2,zero,210cf8 <disk_ioctl+0x48>
  210ce4:	008000c4 	movi	r2,3
            CS_HIGH();
            return RES_OK;
        }
    }
    return RES_ERROR;
}
  210ce8:	dfc00117 	ldw	ra,4(sp)
  210cec:	dc000017 	ldw	r16,0(sp)
  210cf0:	dec00204 	addi	sp,sp,8
  210cf4:	f800283a 	ret
	void *buff		/* Buffer to send/receive control data */
)
{
	if (pdrv) return RES_PARERR;
    if (Stat & STA_NOINIT) return RES_NOTRDY;
    if (cmd == CTRL_SYNC) {
  210cf8:	29403fcc 	andi	r5,r5,255
  210cfc:	28000226 	beq	r5,zero,210d08 <disk_ioctl+0x58>
        if (wait_ready()) {
            CS_HIGH();
            return RES_OK;
        }
    }
    return RES_ERROR;
  210d00:	00800044 	movi	r2,1
  210d04:	003ff006 	br	210cc8 <disk_ioctl+0x18>
)
{
	if (pdrv) return RES_PARERR;
    if (Stat & STA_NOINIT) return RES_NOTRDY;
    if (cmd == CTRL_SYNC) {
        CS_LOW();
  210d08:	040008f4 	movhi	r16,35
  210d0c:	84264504 	addi	r16,r16,-26348
  210d10:	00800044 	movi	r2,1
  210d14:	80800035 	stwio	r2,0(r16)
        if (wait_ready()) {
  210d18:	021018c0 	call	21018c <wait_ready>
  210d1c:	103ff826 	beq	r2,zero,210d00 <disk_ioctl+0x50>
            CS_HIGH();
  210d20:	80000035 	stwio	zero,0(r16)
            return RES_OK;
  210d24:	0005883a 	mov	r2,zero
  210d28:	003fe706 	br	210cc8 <disk_ioctl+0x18>

00210d2c <get_ldnumber>:
#if FF_STR_VOLUME_ID		/* Find string volume ID */
	const char *vsp;
	char vchr;
#endif

	tt = tp = *path;
  210d2c:	22000017 	ldw	r8,0(r4)
	if (!tp) return -1;		/* Invalid path name? */
  210d30:	40001226 	beq	r8,zero,210d7c <get_ldnumber+0x50>
  210d34:	4005883a 	mov	r2,r8
	do {					/* Find a colon in the path */
		chr = *tt++;
	} while (!IsTerminator(chr) && chr != ':');
  210d38:	01800804 	movi	r6,32
  210d3c:	01c00e84 	movi	r7,58
#endif

	tt = tp = *path;
	if (!tp) return -1;		/* Invalid path name? */
	do {					/* Find a colon in the path */
		chr = *tt++;
  210d40:	10c00003 	ldbu	r3,0(r2)
  210d44:	10800044 	addi	r2,r2,1
	} while (!IsTerminator(chr) && chr != ':');
  210d48:	19403fcc 	andi	r5,r3,255
  210d4c:	18c03fcc 	andi	r3,r3,255
  210d50:	18c0201c 	xori	r3,r3,128
  210d54:	18ffe004 	addi	r3,r3,-128
  210d58:	31400a2e 	bgeu	r6,r5,210d84 <get_ldnumber+0x58>
  210d5c:	19fff81e 	bne	r3,r7,210d40 <get_ldnumber+0x14>

	if (chr == ':') {	/* Is there a DOS/Windows style volume ID? */
		i = FF_VOLUMES;
		if (IsDigit(*tp) && tp + 2 == tt) {	/* Is it a numeric volume ID + colon? */
  210d60:	40c00003 	ldbu	r3,0(r8)
  210d64:	01800244 	movi	r6,9
  210d68:	197ff404 	addi	r5,r3,-48
  210d6c:	29403fcc 	andi	r5,r5,255
  210d70:	31400236 	bltu	r6,r5,210d7c <get_ldnumber+0x50>
  210d74:	42000084 	addi	r8,r8,2
  210d78:	12000426 	beq	r2,r8,210d8c <get_ldnumber+0x60>
	const char *vsp;
	char vchr;
#endif

	tt = tp = *path;
	if (!tp) return -1;		/* Invalid path name? */
  210d7c:	00bfffc4 	movi	r2,-1
#if FF_FS_RPATH
	return (int)CurrVol;	/* Default drive is current drive */
#else
	return 0;				/* Default drive is 0 */
#endif
}
  210d80:	f800283a 	ret
#endif
	/* No drive prefix */
#if FF_FS_RPATH
	return (int)CurrVol;	/* Default drive is current drive */
#else
	return 0;				/* Default drive is 0 */
  210d84:	0005883a 	mov	r2,zero
  210d88:	f800283a 	ret
					if (IsLower(chr)) chr -= 0x20;
				} while (vchr && (TCHAR)vchr == chr);
			} while ((vchr || tp != tt) && ++i < FF_VOLUMES);	/* Repeat for each id until pattern match */
		}
#endif
		if (i >= FF_VOLUMES) return -1;	/* Not found or invalid volume ID */
  210d8c:	18c03fcc 	andi	r3,r3,255
  210d90:	18c0201c 	xori	r3,r3,128
  210d94:	18ffe004 	addi	r3,r3,-128
  210d98:	01400c04 	movi	r5,48
  210d9c:	197ff71e 	bne	r3,r5,210d7c <get_ldnumber+0x50>
		*path = tt;		/* Snip the drive prefix off */
  210da0:	20800015 	stw	r2,0(r4)
		return i;		/* Return the found drive number */
  210da4:	0005883a 	mov	r2,zero
  210da8:	f800283a 	ret

00210dac <validate>:

static FRESULT validate (	/* Returns FR_OK or FR_INVALID_OBJECT */
	FFOBJID* obj,			/* Pointer to the FFOBJID, the 1st member in the FIL/DIR structure, to check validity */
	FATFS** rfs				/* Pointer to pointer to the owner filesystem object to return */
)
{
  210dac:	defffd04 	addi	sp,sp,-12
  210db0:	dc000115 	stw	r16,4(sp)
  210db4:	dfc00215 	stw	ra,8(sp)
  210db8:	2021883a 	mov	r16,r4
	FRESULT res = FR_INVALID_OBJECT;


	if (obj && obj->fs && obj->fs->fs_type && obj->id == obj->fs->id) {	/* Test if the object is valid */
  210dbc:	20000426 	beq	r4,zero,210dd0 <validate+0x24>
  210dc0:	20800017 	ldw	r2,0(r4)
  210dc4:	10000226 	beq	r2,zero,210dd0 <validate+0x24>
  210dc8:	10c00003 	ldbu	r3,0(r2)
  210dcc:	1800071e 	bne	r3,zero,210dec <validate+0x40>
		} else {	/* Could not take */
			res = FR_TIMEOUT;
		}
#else
		if (!(disk_status(obj->fs->pdrv) & STA_NOINIT)) { /* Test if the hosting physical drive is kept initialized */
			res = FR_OK;
  210dd0:	00800244 	movi	r2,9
		}
#endif
	}
	*rfs = (res == FR_OK) ? obj->fs : 0;	/* Return corresponding filesystem object if it is valid */
  210dd4:	0007883a 	mov	r3,zero
  210dd8:	28c00015 	stw	r3,0(r5)
	return res;
}
  210ddc:	dfc00217 	ldw	ra,8(sp)
  210de0:	dc000117 	ldw	r16,4(sp)
  210de4:	dec00304 	addi	sp,sp,12
  210de8:	f800283a 	ret
)
{
	FRESULT res = FR_INVALID_OBJECT;


	if (obj && obj->fs && obj->fs->fs_type && obj->id == obj->fs->id) {	/* Test if the object is valid */
  210dec:	2100010b 	ldhu	r4,4(r4)
  210df0:	10c0018b 	ldhu	r3,6(r2)
  210df4:	20fff61e 	bne	r4,r3,210dd0 <validate+0x24>
			}
		} else {	/* Could not take */
			res = FR_TIMEOUT;
		}
#else
		if (!(disk_status(obj->fs->pdrv) & STA_NOINIT)) { /* Test if the hosting physical drive is kept initialized */
  210df8:	11000043 	ldbu	r4,1(r2)
  210dfc:	d9400015 	stw	r5,0(sp)
  210e00:	02105900 	call	210590 <disk_status>
  210e04:	1080004c 	andi	r2,r2,1
  210e08:	d9400017 	ldw	r5,0(sp)
  210e0c:	103ff01e 	bne	r2,zero,210dd0 <validate+0x24>
			res = FR_OK;
		}
#endif
	}
	*rfs = (res == FR_OK) ? obj->fs : 0;	/* Return corresponding filesystem object if it is valid */
  210e10:	80c00017 	ldw	r3,0(r16)
		} else {	/* Could not take */
			res = FR_TIMEOUT;
		}
#else
		if (!(disk_status(obj->fs->pdrv) & STA_NOINIT)) { /* Test if the hosting physical drive is kept initialized */
			res = FR_OK;
  210e14:	0005883a 	mov	r2,zero
  210e18:	003fef06 	br	210dd8 <validate+0x2c>

00210e1c <st_clust.isra.1>:
		}
		FREE_NAMEBUFF();
	}

	LEAVE_FF(fs, res);
}
  210e1c:	30bfffcc 	andi	r2,r6,65535
#endif

#if !FF_FS_READONLY
static void st_16 (BYTE* ptr, WORD val)	/* Store a 2-byte word in little-endian */
{
	*ptr++ = (BYTE)val; val >>= 8;
  210e20:	1006d23a 	srli	r3,r2,8
  210e24:	28800685 	stb	r2,26(r5)
	BYTE* dir,	/* Pointer to the key entry */
	DWORD cl	/* Value to be set */
)
{
	st_16(dir + DIR_FstClusLO, (WORD)cl);
	if (fs->fs_type == FS_FAT32) {
  210e28:	008000c4 	movi	r2,3

#if !FF_FS_READONLY
static void st_16 (BYTE* ptr, WORD val)	/* Store a 2-byte word in little-endian */
{
	*ptr++ = (BYTE)val; val >>= 8;
	*ptr++ = (BYTE)val;
  210e2c:	28c006c5 	stb	r3,27(r5)
	BYTE* dir,	/* Pointer to the key entry */
	DWORD cl	/* Value to be set */
)
{
	st_16(dir + DIR_FstClusLO, (WORD)cl);
	if (fs->fs_type == FS_FAT32) {
  210e30:	20c00003 	ldbu	r3,0(r4)
  210e34:	18800126 	beq	r3,r2,210e3c <st_clust.isra.1+0x20>
  210e38:	f800283a 	ret
		}
		FREE_NAMEBUFF();
	}

	LEAVE_FF(fs, res);
}
  210e3c:	300cd43a 	srli	r6,r6,16
#endif

#if !FF_FS_READONLY
static void st_16 (BYTE* ptr, WORD val)	/* Store a 2-byte word in little-endian */
{
	*ptr++ = (BYTE)val; val >>= 8;
  210e40:	3004d23a 	srli	r2,r6,8
  210e44:	29800505 	stb	r6,20(r5)
	*ptr++ = (BYTE)val;
  210e48:	28800545 	stb	r2,21(r5)
  210e4c:	f800283a 	ret

00210e50 <get_fileinfo.part.3>:
#if FF_FS_MINIMIZE <= 1 || FF_FS_RPATH >= 2
/*-----------------------------------------------------------------------*/
/* Get file information from directory entry                             */
/*-----------------------------------------------------------------------*/

static void get_fileinfo (
  210e50:	0007883a 	mov	r3,zero
  210e54:	0005883a 	mov	r2,zero

#else	/* Non-LFN configuration */
	si = di = 0;
	while (si < 11) {		/* Copy name body and extension */
		c = (TCHAR)dp->dir[si++];
		if (c == ' ') continue;		/* Skip padding spaces */
  210e58:	02400804 	movi	r9,32
		if (c == RDDEM) c = DDEM;	/* Restore replaced DDEM character */
  210e5c:	02c00144 	movi	r11,5
		if (si == 9) fno->fname[di++] = '.';/* Insert a . if extension is exist */
  210e60:	02800244 	movi	r10,9
  210e64:	03000b84 	movi	r12,46
		if (!dp->dir[DIR_NTres]) fno->altname[0] = 0;	/* Altname is not needed if neither LFN nor case info is exist. */
	}

#else	/* Non-LFN configuration */
	si = di = 0;
	while (si < 11) {		/* Copy name body and extension */
  210e68:	020002c4 	movi	r8,11
		c = (TCHAR)dp->dir[si++];
  210e6c:	21800717 	ldw	r6,28(r4)
  210e70:	308d883a 	add	r6,r6,r2
  210e74:	31800003 	ldbu	r6,0(r6)
  210e78:	10800044 	addi	r2,r2,1
		if (c == ' ') continue;		/* Skip padding spaces */
  210e7c:	31c03fcc 	andi	r7,r6,255
  210e80:	39c0201c 	xori	r7,r7,128
  210e84:	39ffe004 	addi	r7,r7,-128
  210e88:	3a400526 	beq	r7,r9,210ea0 <get_fileinfo.part.3+0x50>
		if (c == RDDEM) c = DDEM;	/* Restore replaced DDEM character */
  210e8c:	3ac02226 	beq	r7,r11,210f18 <get_fileinfo.part.3+0xc8>
		if (si == 9) fno->fname[di++] = '.';/* Insert a . if extension is exist */
  210e90:	12802326 	beq	r2,r10,210f20 <get_fileinfo.part.3+0xd0>
		fno->fname[di++] = c;
  210e94:	28cf883a 	add	r7,r5,r3
  210e98:	39800245 	stb	r6,9(r7)
  210e9c:	18c00044 	addi	r3,r3,1
		if (!dp->dir[DIR_NTres]) fno->altname[0] = 0;	/* Altname is not needed if neither LFN nor case info is exist. */
	}

#else	/* Non-LFN configuration */
	si = di = 0;
	while (si < 11) {		/* Copy name body and extension */
  210ea0:	123ff21e 	bne	r2,r8,210e6c <get_fileinfo.part.3+0x1c>
		if (c == ' ') continue;		/* Skip padding spaces */
		if (c == RDDEM) c = DDEM;	/* Restore replaced DDEM character */
		if (si == 9) fno->fname[di++] = '.';/* Insert a . if extension is exist */
		fno->fname[di++] = c;
	}
	fno->fname[di] = 0;		/* Terminate the SFN */
  210ea4:	28c7883a 	add	r3,r5,r3
  210ea8:	18000245 	stb	zero,9(r3)
#endif

	fno->fattrib = dp->dir[DIR_Attr] & AM_MASK;		/* Attribute */
  210eac:	20800717 	ldw	r2,28(r4)
  210eb0:	108002c3 	ldbu	r2,11(r2)
  210eb4:	10800fcc 	andi	r2,r2,63
  210eb8:	28800205 	stb	r2,8(r5)
	fno->fsize = ld_32(dp->dir + DIR_FileSize);		/* Size */
  210ebc:	20800717 	ldw	r2,28(r4)

static DWORD ld_32 (const BYTE* ptr)	/* Load a 4-byte little-endian word */
{
	DWORD rv;

	rv = ptr[3];
  210ec0:	10c007c3 	ldbu	r3,31(r2)
	rv = rv << 8 | ptr[2];
  210ec4:	11c00783 	ldbu	r7,30(r2)
	rv = rv << 8 | ptr[1];
  210ec8:	11800743 	ldbu	r6,29(r2)
static DWORD ld_32 (const BYTE* ptr)	/* Load a 4-byte little-endian word */
{
	DWORD rv;

	rv = ptr[3];
	rv = rv << 8 | ptr[2];
  210ecc:	1806923a 	slli	r3,r3,8
	rv = rv << 8 | ptr[1];
	rv = rv << 8 | ptr[0];
  210ed0:	11000703 	ldbu	r4,28(r2)
static DWORD ld_32 (const BYTE* ptr)	/* Load a 4-byte little-endian word */
{
	DWORD rv;

	rv = ptr[3];
	rv = rv << 8 | ptr[2];
  210ed4:	19c6b03a 	or	r3,r3,r7
	rv = rv << 8 | ptr[1];
  210ed8:	1806923a 	slli	r3,r3,8
  210edc:	1986b03a 	or	r3,r3,r6
	rv = rv << 8 | ptr[0];
  210ee0:	1806923a 	slli	r3,r3,8
  210ee4:	1906b03a 	or	r3,r3,r4
	}
	fno->fname[di] = 0;		/* Terminate the SFN */
#endif

	fno->fattrib = dp->dir[DIR_Attr] & AM_MASK;		/* Attribute */
	fno->fsize = ld_32(dp->dir + DIR_FileSize);		/* Size */
  210ee8:	28c00015 	stw	r3,0(r5)
static WORD ld_16 (const BYTE* ptr)	/*	 Load a 2-byte little-endian word */
{
	WORD rv;

	rv = ptr[1];
	rv = rv << 8 | ptr[0];
  210eec:	10c005c3 	ldbu	r3,23(r2)
  210ef0:	11000583 	ldbu	r4,22(r2)
  210ef4:	1806923a 	slli	r3,r3,8
  210ef8:	1906b03a 	or	r3,r3,r4
	fno->fname[di] = 0;		/* Terminate the SFN */
#endif

	fno->fattrib = dp->dir[DIR_Attr] & AM_MASK;		/* Attribute */
	fno->fsize = ld_32(dp->dir + DIR_FileSize);		/* Size */
	fno->ftime = ld_16(dp->dir + DIR_ModTime + 0);	/* Last modified time */
  210efc:	28c0018d 	sth	r3,6(r5)
static WORD ld_16 (const BYTE* ptr)	/*	 Load a 2-byte little-endian word */
{
	WORD rv;

	rv = ptr[1];
	rv = rv << 8 | ptr[0];
  210f00:	11000643 	ldbu	r4,25(r2)
  210f04:	10c00603 	ldbu	r3,24(r2)
  210f08:	2004923a 	slli	r2,r4,8
  210f0c:	10c4b03a 	or	r2,r2,r3
#endif

	fno->fattrib = dp->dir[DIR_Attr] & AM_MASK;		/* Attribute */
	fno->fsize = ld_32(dp->dir + DIR_FileSize);		/* Size */
	fno->ftime = ld_16(dp->dir + DIR_ModTime + 0);	/* Last modified time */
	fno->fdate = ld_16(dp->dir + DIR_ModTime + 2);	/* Last Modified date */
  210f10:	2880010d 	sth	r2,4(r5)
  210f14:	f800283a 	ret
#else	/* Non-LFN configuration */
	si = di = 0;
	while (si < 11) {		/* Copy name body and extension */
		c = (TCHAR)dp->dir[si++];
		if (c == ' ') continue;		/* Skip padding spaces */
		if (c == RDDEM) c = DDEM;	/* Restore replaced DDEM character */
  210f18:	01bff944 	movi	r6,-27
		if (si == 9) fno->fname[di++] = '.';/* Insert a . if extension is exist */
  210f1c:	12bfdd1e 	bne	r2,r10,210e94 <get_fileinfo.part.3+0x44>
  210f20:	28cf883a 	add	r7,r5,r3
  210f24:	3b000245 	stb	r12,9(r7)
  210f28:	18c00044 	addi	r3,r3,1
  210f2c:	003fd906 	br	210e94 <get_fileinfo.part.3+0x44>

00210f30 <sync_window.part.4>:

/*-----------------------------------------------------------------------*/
/* Move/Flush disk access window in the filesystem object                */
/*-----------------------------------------------------------------------*/
#if !FF_FS_READONLY
static FRESULT sync_window (	/* Returns FR_OK or FR_DISK_ERR */
  210f30:	defffd04 	addi	sp,sp,-12
  210f34:	dc400115 	stw	r17,4(sp)
  210f38:	dc000015 	stw	r16,0(sp)
  210f3c:	dfc00215 	stw	ra,8(sp)
  210f40:	2021883a 	mov	r16,r4
{
	FRESULT res = FR_OK;


	if (fs->wflag) {	/* Is the disk access window dirty? */
		if (disk_write(fs->pdrv, fs->win, fs->winsect, 1) == RES_OK) {	/* Write it back into the volume */
  210f44:	81800717 	ldw	r6,28(r16)
  210f48:	21000043 	ldbu	r4,1(r4)
  210f4c:	84400c04 	addi	r17,r16,48
  210f50:	880b883a 	mov	r5,r17
  210f54:	01c00044 	movi	r7,1
  210f58:	0210a640 	call	210a64 <disk_write>
  210f5c:	10000f1e 	bne	r2,zero,210f9c <sync_window.part.4+0x6c>
			fs->wflag = 0;	/* Clear window dirty flag */
			if (fs->winsect - fs->fatbase < fs->fsize) {	/* Is it in the 1st FAT? */
  210f60:	80800717 	ldw	r2,28(r16)
  210f64:	80c00917 	ldw	r3,36(r16)
  210f68:	81800617 	ldw	r6,24(r16)
	FRESULT res = FR_OK;


	if (fs->wflag) {	/* Is the disk access window dirty? */
		if (disk_write(fs->pdrv, fs->win, fs->winsect, 1) == RES_OK) {	/* Write it back into the volume */
			fs->wflag = 0;	/* Clear window dirty flag */
  210f6c:	80000105 	stb	zero,4(r16)
			if (fs->winsect - fs->fatbase < fs->fsize) {	/* Is it in the 1st FAT? */
  210f70:	10c7c83a 	sub	r3,r2,r3
  210f74:	1980032e 	bgeu	r3,r6,210f84 <sync_window.part.4+0x54>
				if (fs->n_fats == 2) disk_write(fs->pdrv, fs->win, fs->winsect + fs->fsize, 1);	/* Reflect it to 2nd FAT if needed */
  210f78:	810000c3 	ldbu	r4,3(r16)
  210f7c:	00c00084 	movi	r3,2
  210f80:	20c00c26 	beq	r4,r3,210fb4 <sync_window.part.4+0x84>
#if !FF_FS_READONLY
static FRESULT sync_window (	/* Returns FR_OK or FR_DISK_ERR */
	FATFS* fs			/* Filesystem object */
)
{
	FRESULT res = FR_OK;
  210f84:	0005883a 	mov	r2,zero
		} else {
			res = FR_DISK_ERR;
		}
	}
	return res;
}
  210f88:	dfc00217 	ldw	ra,8(sp)
  210f8c:	dc400117 	ldw	r17,4(sp)
  210f90:	dc000017 	ldw	r16,0(sp)
  210f94:	dec00304 	addi	sp,sp,12
  210f98:	f800283a 	ret
			fs->wflag = 0;	/* Clear window dirty flag */
			if (fs->winsect - fs->fatbase < fs->fsize) {	/* Is it in the 1st FAT? */
				if (fs->n_fats == 2) disk_write(fs->pdrv, fs->win, fs->winsect + fs->fsize, 1);	/* Reflect it to 2nd FAT if needed */
			}
		} else {
			res = FR_DISK_ERR;
  210f9c:	00800044 	movi	r2,1
		}
	}
	return res;
}
  210fa0:	dfc00217 	ldw	ra,8(sp)
  210fa4:	dc400117 	ldw	r17,4(sp)
  210fa8:	dc000017 	ldw	r16,0(sp)
  210fac:	dec00304 	addi	sp,sp,12
  210fb0:	f800283a 	ret

	if (fs->wflag) {	/* Is the disk access window dirty? */
		if (disk_write(fs->pdrv, fs->win, fs->winsect, 1) == RES_OK) {	/* Write it back into the volume */
			fs->wflag = 0;	/* Clear window dirty flag */
			if (fs->winsect - fs->fatbase < fs->fsize) {	/* Is it in the 1st FAT? */
				if (fs->n_fats == 2) disk_write(fs->pdrv, fs->win, fs->winsect + fs->fsize, 1);	/* Reflect it to 2nd FAT if needed */
  210fb4:	81000043 	ldbu	r4,1(r16)
  210fb8:	880b883a 	mov	r5,r17
  210fbc:	308d883a 	add	r6,r6,r2
  210fc0:	01c00044 	movi	r7,1
  210fc4:	0210a640 	call	210a64 <disk_write>
#if !FF_FS_READONLY
static FRESULT sync_window (	/* Returns FR_OK or FR_DISK_ERR */
	FATFS* fs			/* Filesystem object */
)
{
	FRESULT res = FR_OK;
  210fc8:	0005883a 	mov	r2,zero
  210fcc:	003fee06 	br	210f88 <sync_window.part.4+0x58>

00210fd0 <move_window>:
)
{
	FRESULT res = FR_OK;


	if (sect != fs->winsect) {	/* Window offset changed? */
  210fd0:	20800717 	ldw	r2,28(r4)

static FRESULT move_window (	/* Returns FR_OK or FR_DISK_ERR */
	FATFS* fs,		/* Filesystem object */
	LBA_t sect		/* Sector LBA to make appearance in the fs->win[] */
)
{
  210fd4:	defffd04 	addi	sp,sp,-12
  210fd8:	dc400115 	stw	r17,4(sp)
  210fdc:	dc000015 	stw	r16,0(sp)
  210fe0:	dfc00215 	stw	ra,8(sp)
  210fe4:	2021883a 	mov	r16,r4
  210fe8:	2823883a 	mov	r17,r5
	FRESULT res = FR_OK;


	if (sect != fs->winsect) {	/* Window offset changed? */
  210fec:	11401726 	beq	r2,r5,21104c <move_window+0x7c>
)
{
	FRESULT res = FR_OK;


	if (fs->wflag) {	/* Is the disk access window dirty? */
  210ff0:	20800103 	ldbu	r2,4(r4)
  210ff4:	10000e1e 	bne	r2,zero,211030 <move_window+0x60>
	if (sect != fs->winsect) {	/* Window offset changed? */
#if !FF_FS_READONLY
		res = sync_window(fs);		/* Flush the window */
#endif
		if (res == FR_OK) {			/* Fill sector window with new data */
			if (disk_read(fs->pdrv, fs->win, sect, 1) != RES_OK) {
  210ff8:	81000043 	ldbu	r4,1(r16)
  210ffc:	81400c04 	addi	r5,r16,48
  211000:	880d883a 	mov	r6,r17
  211004:	01c00044 	movi	r7,1
  211008:	02108700 	call	210870 <disk_read>
  21100c:	10001526 	beq	r2,zero,211064 <move_window+0x94>
				sect = (LBA_t)0 - 1;	/* Invalidate window if read data is not valid */
  211010:	047fffc4 	movi	r17,-1
				res = FR_DISK_ERR;
  211014:	00800044 	movi	r2,1
			}
			fs->winsect = sect;
  211018:	84400715 	stw	r17,28(r16)
		}
	}
	return res;
}
  21101c:	dfc00217 	ldw	ra,8(sp)
  211020:	dc400117 	ldw	r17,4(sp)
  211024:	dc000017 	ldw	r16,0(sp)
  211028:	dec00304 	addi	sp,sp,12
  21102c:	f800283a 	ret
  211030:	0210f300 	call	210f30 <sync_window.part.4>

	if (sect != fs->winsect) {	/* Window offset changed? */
#if !FF_FS_READONLY
		res = sync_window(fs);		/* Flush the window */
#endif
		if (res == FR_OK) {			/* Fill sector window with new data */
  211034:	103ff026 	beq	r2,zero,210ff8 <move_window+0x28>
			}
			fs->winsect = sect;
		}
	}
	return res;
}
  211038:	dfc00217 	ldw	ra,8(sp)
  21103c:	dc400117 	ldw	r17,4(sp)
  211040:	dc000017 	ldw	r16,0(sp)
  211044:	dec00304 	addi	sp,sp,12
  211048:	f800283a 	ret
static FRESULT move_window (	/* Returns FR_OK or FR_DISK_ERR */
	FATFS* fs,		/* Filesystem object */
	LBA_t sect		/* Sector LBA to make appearance in the fs->win[] */
)
{
	FRESULT res = FR_OK;
  21104c:	0005883a 	mov	r2,zero
			}
			fs->winsect = sect;
		}
	}
	return res;
}
  211050:	dfc00217 	ldw	ra,8(sp)
  211054:	dc400117 	ldw	r17,4(sp)
  211058:	dc000017 	ldw	r16,0(sp)
  21105c:	dec00304 	addi	sp,sp,12
  211060:	f800283a 	ret
	if (sect != fs->winsect) {	/* Window offset changed? */
#if !FF_FS_READONLY
		res = sync_window(fs);		/* Flush the window */
#endif
		if (res == FR_OK) {			/* Fill sector window with new data */
			if (disk_read(fs->pdrv, fs->win, sect, 1) != RES_OK) {
  211064:	0005883a 	mov	r2,zero
				sect = (LBA_t)0 - 1;	/* Invalidate window if read data is not valid */
				res = FR_DISK_ERR;
			}
			fs->winsect = sect;
  211068:	84400715 	stw	r17,28(r16)
  21106c:	003feb06 	br	21101c <move_window+0x4c>

00211070 <get_fat>:

static DWORD get_fat (		/* 0xFFFFFFFF:Disk error, 1:Internal error, 2..0x7FFFFFFF:Cluster status */
	FFOBJID* obj,	/* Corresponding object */
	DWORD clst		/* Cluster number to get the value */
)
{
  211070:	defffb04 	addi	sp,sp,-20
  211074:	dc400115 	stw	r17,4(sp)
  211078:	dc000015 	stw	r16,0(sp)
  21107c:	dfc00415 	stw	ra,16(sp)
  211080:	dcc00315 	stw	r19,12(sp)
  211084:	dc800215 	stw	r18,8(sp)
	UINT wc, bc;
	DWORD val;
	FATFS *fs = obj->fs;


	if (clst < 2 || clst >= fs->n_fatent) {	/* Check if in valid range */
  211088:	00800044 	movi	r2,1

static DWORD get_fat (		/* 0xFFFFFFFF:Disk error, 1:Internal error, 2..0x7FFFFFFF:Cluster status */
	FFOBJID* obj,	/* Corresponding object */
	DWORD clst		/* Cluster number to get the value */
)
{
  21108c:	2821883a 	mov	r16,r5
	UINT wc, bc;
	DWORD val;
	FATFS *fs = obj->fs;
  211090:	24400017 	ldw	r17,0(r4)


	if (clst < 2 || clst >= fs->n_fatent) {	/* Check if in valid range */
  211094:	1140082e 	bgeu	r2,r5,2110b8 <get_fat+0x48>
  211098:	88c00517 	ldw	r3,20(r17)
  21109c:	28c0062e 	bgeu	r5,r3,2110b8 <get_fat+0x48>
		val = 1;	/* Internal error */

	} else {
		val = 0xFFFFFFFF;	/* Default value falls on disk error */

		switch (fs->fs_type) {
  2110a0:	88c00003 	ldbu	r3,0(r17)
  2110a4:	01000084 	movi	r4,2
  2110a8:	19003426 	beq	r3,r4,21117c <get_fat+0x10c>
  2110ac:	010000c4 	movi	r4,3
  2110b0:	19001826 	beq	r3,r4,211114 <get_fat+0xa4>
  2110b4:	18800726 	beq	r3,r2,2110d4 <get_fat+0x64>
			val = 1;	/* Internal error */
		}
	}

	return val;
}
  2110b8:	dfc00417 	ldw	ra,16(sp)
  2110bc:	dcc00317 	ldw	r19,12(sp)
  2110c0:	dc800217 	ldw	r18,8(sp)
  2110c4:	dc400117 	ldw	r17,4(sp)
  2110c8:	dc000017 	ldw	r16,0(sp)
  2110cc:	dec00504 	addi	sp,sp,20
  2110d0:	f800283a 	ret
	} else {
		val = 0xFFFFFFFF;	/* Default value falls on disk error */

		switch (fs->fs_type) {
		case FS_FAT12 :
			bc = (UINT)clst; bc += bc / 2;
  2110d4:	28a4d83a 	srl	r18,r5,r2
			if (move_window(fs, fs->fatbase + (bc / SS(fs))) != FR_OK) break;
  2110d8:	88800917 	ldw	r2,36(r17)
  2110dc:	8809883a 	mov	r4,r17
	} else {
		val = 0xFFFFFFFF;	/* Default value falls on disk error */

		switch (fs->fs_type) {
		case FS_FAT12 :
			bc = (UINT)clst; bc += bc / 2;
  2110e0:	9165883a 	add	r18,r18,r5
			if (move_window(fs, fs->fatbase + (bc / SS(fs))) != FR_OK) break;
  2110e4:	900ad27a 	srli	r5,r18,9
  2110e8:	288b883a 	add	r5,r5,r2
  2110ec:	0210fd00 	call	210fd0 <move_window>
  2110f0:	10003126 	beq	r2,zero,2111b8 <get_fat+0x148>

	if (clst < 2 || clst >= fs->n_fatent) {	/* Check if in valid range */
		val = 1;	/* Internal error */

	} else {
		val = 0xFFFFFFFF;	/* Default value falls on disk error */
  2110f4:	00bfffc4 	movi	r2,-1
			val = 1;	/* Internal error */
		}
	}

	return val;
}
  2110f8:	dfc00417 	ldw	ra,16(sp)
  2110fc:	dcc00317 	ldw	r19,12(sp)
  211100:	dc800217 	ldw	r18,8(sp)
  211104:	dc400117 	ldw	r17,4(sp)
  211108:	dc000017 	ldw	r16,0(sp)
  21110c:	dec00504 	addi	sp,sp,20
  211110:	f800283a 	ret
			if (move_window(fs, fs->fatbase + (clst / (SS(fs) / 2))) != FR_OK) break;
			val = ld_16(fs->win + clst * 2 % SS(fs));		/* Simple WORD array */
			break;

		case FS_FAT32 :
			if (move_window(fs, fs->fatbase + (clst / (SS(fs) / 4))) != FR_OK) break;
  211114:	280ad1fa 	srli	r5,r5,7
  211118:	88800917 	ldw	r2,36(r17)
  21111c:	8809883a 	mov	r4,r17
  211120:	288b883a 	add	r5,r5,r2
  211124:	0210fd00 	call	210fd0 <move_window>
  211128:	103ff21e 	bne	r2,zero,2110f4 <get_fat+0x84>
			val = ld_32(fs->win + clst * 4 % SS(fs)) & 0x0FFFFFFF;	/* Simple DWORD array but mask out upper 4 bits */
  21112c:	8421883a 	add	r16,r16,r16
  211130:	8421883a 	add	r16,r16,r16
  211134:	80c07fcc 	andi	r3,r16,511
  211138:	18800c04 	addi	r2,r3,48
  21113c:	8885883a 	add	r2,r17,r2

static DWORD ld_32 (const BYTE* ptr)	/* Load a 4-byte little-endian word */
{
	DWORD rv;

	rv = ptr[3];
  211140:	118000c3 	ldbu	r6,3(r2)
	rv = rv << 8 | ptr[2];
  211144:	11400083 	ldbu	r5,2(r2)
	rv = rv << 8 | ptr[1];
  211148:	11000043 	ldbu	r4,1(r2)
static DWORD ld_32 (const BYTE* ptr)	/* Load a 4-byte little-endian word */
{
	DWORD rv;

	rv = ptr[3];
	rv = rv << 8 | ptr[2];
  21114c:	3004923a 	slli	r2,r6,8
	rv = rv << 8 | ptr[1];
	rv = rv << 8 | ptr[0];
  211150:	88c7883a 	add	r3,r17,r3
  211154:	18c00c03 	ldbu	r3,48(r3)
static DWORD ld_32 (const BYTE* ptr)	/* Load a 4-byte little-endian word */
{
	DWORD rv;

	rv = ptr[3];
	rv = rv << 8 | ptr[2];
  211158:	1144b03a 	or	r2,r2,r5
	rv = rv << 8 | ptr[1];
  21115c:	1004923a 	slli	r2,r2,8
  211160:	1104b03a 	or	r2,r2,r4
	rv = rv << 8 | ptr[0];
  211164:	1004923a 	slli	r2,r2,8
  211168:	1886b03a 	or	r3,r3,r2
			val = ld_16(fs->win + clst * 2 % SS(fs));		/* Simple WORD array */
			break;

		case FS_FAT32 :
			if (move_window(fs, fs->fatbase + (clst / (SS(fs) / 4))) != FR_OK) break;
			val = ld_32(fs->win + clst * 4 % SS(fs)) & 0x0FFFFFFF;	/* Simple DWORD array but mask out upper 4 bits */
  21116c:	00840034 	movhi	r2,4096
  211170:	10bfffc4 	addi	r2,r2,-1
  211174:	1884703a 	and	r2,r3,r2
			break;
  211178:	003fcf06 	br	2110b8 <get_fat+0x48>
			wc |= fs->win[bc % SS(fs)] << 8;	/* Merge 2nd byte of the entry */
			val = (clst & 1) ? (wc >> 4) : (wc & 0xFFF);	/* Adjust bit position */
			break;

		case FS_FAT16 :
			if (move_window(fs, fs->fatbase + (clst / (SS(fs) / 2))) != FR_OK) break;
  21117c:	280ad23a 	srli	r5,r5,8
  211180:	88800917 	ldw	r2,36(r17)
  211184:	8809883a 	mov	r4,r17
  211188:	288b883a 	add	r5,r5,r2
  21118c:	0210fd00 	call	210fd0 <move_window>
  211190:	103fd81e 	bne	r2,zero,2110f4 <get_fat+0x84>
			val = ld_16(fs->win + clst * 2 % SS(fs));		/* Simple WORD array */
  211194:	8421883a 	add	r16,r16,r16
  211198:	84007fcc 	andi	r16,r16,511

static WORD ld_16 (const BYTE* ptr)	/*	 Load a 2-byte little-endian word */
{
	WORD rv;

	rv = ptr[1];
  21119c:	8c05883a 	add	r2,r17,r16
	rv = rv << 8 | ptr[0];
  2111a0:	10800c43 	ldbu	r2,49(r2)
  2111a4:	8c21883a 	add	r16,r17,r16
  2111a8:	80c00c03 	ldbu	r3,48(r16)
  2111ac:	1004923a 	slli	r2,r2,8
			val = (clst & 1) ? (wc >> 4) : (wc & 0xFFF);	/* Adjust bit position */
			break;

		case FS_FAT16 :
			if (move_window(fs, fs->fatbase + (clst / (SS(fs) / 2))) != FR_OK) break;
			val = ld_16(fs->win + clst * 2 % SS(fs));		/* Simple WORD array */
  2111b0:	10c4b03a 	or	r2,r2,r3
			break;
  2111b4:	003fc006 	br	2110b8 <get_fat+0x48>

		switch (fs->fs_type) {
		case FS_FAT12 :
			bc = (UINT)clst; bc += bc / 2;
			if (move_window(fs, fs->fatbase + (bc / SS(fs))) != FR_OK) break;
			wc = fs->win[bc++ % SS(fs)];		/* Get 1st byte of the entry */
  2111b8:	94c00044 	addi	r19,r18,1
			if (move_window(fs, fs->fatbase + (bc / SS(fs))) != FR_OK) break;
  2111bc:	980ad27a 	srli	r5,r19,9
  2111c0:	88800917 	ldw	r2,36(r17)

		switch (fs->fs_type) {
		case FS_FAT12 :
			bc = (UINT)clst; bc += bc / 2;
			if (move_window(fs, fs->fatbase + (bc / SS(fs))) != FR_OK) break;
			wc = fs->win[bc++ % SS(fs)];		/* Get 1st byte of the entry */
  2111c4:	94807fcc 	andi	r18,r18,511
  2111c8:	8ca5883a 	add	r18,r17,r18
			if (move_window(fs, fs->fatbase + (bc / SS(fs))) != FR_OK) break;
  2111cc:	8809883a 	mov	r4,r17
  2111d0:	288b883a 	add	r5,r5,r2

		switch (fs->fs_type) {
		case FS_FAT12 :
			bc = (UINT)clst; bc += bc / 2;
			if (move_window(fs, fs->fatbase + (bc / SS(fs))) != FR_OK) break;
			wc = fs->win[bc++ % SS(fs)];		/* Get 1st byte of the entry */
  2111d4:	94800c03 	ldbu	r18,48(r18)
			if (move_window(fs, fs->fatbase + (bc / SS(fs))) != FR_OK) break;
  2111d8:	0210fd00 	call	210fd0 <move_window>
  2111dc:	103fc51e 	bne	r2,zero,2110f4 <get_fat+0x84>
			wc |= fs->win[bc % SS(fs)] << 8;	/* Merge 2nd byte of the entry */
  2111e0:	9cc07fcc 	andi	r19,r19,511
  2111e4:	8ce3883a 	add	r17,r17,r19
  2111e8:	88800c03 	ldbu	r2,48(r17)

		switch (fs->fs_type) {
		case FS_FAT12 :
			bc = (UINT)clst; bc += bc / 2;
			if (move_window(fs, fs->fatbase + (bc / SS(fs))) != FR_OK) break;
			wc = fs->win[bc++ % SS(fs)];		/* Get 1st byte of the entry */
  2111ec:	94803fcc 	andi	r18,r18,255
			if (move_window(fs, fs->fatbase + (bc / SS(fs))) != FR_OK) break;
			wc |= fs->win[bc % SS(fs)] << 8;	/* Merge 2nd byte of the entry */
			val = (clst & 1) ? (wc >> 4) : (wc & 0xFFF);	/* Adjust bit position */
  2111f0:	8400004c 	andi	r16,r16,1
		case FS_FAT12 :
			bc = (UINT)clst; bc += bc / 2;
			if (move_window(fs, fs->fatbase + (bc / SS(fs))) != FR_OK) break;
			wc = fs->win[bc++ % SS(fs)];		/* Get 1st byte of the entry */
			if (move_window(fs, fs->fatbase + (bc / SS(fs))) != FR_OK) break;
			wc |= fs->win[bc % SS(fs)] << 8;	/* Merge 2nd byte of the entry */
  2111f4:	1004923a 	slli	r2,r2,8
  2111f8:	1484b03a 	or	r2,r2,r18
			val = (clst & 1) ? (wc >> 4) : (wc & 0xFFF);	/* Adjust bit position */
  2111fc:	80000226 	beq	r16,zero,211208 <get_fat+0x198>
  211200:	1004d13a 	srli	r2,r2,4
  211204:	003fac06 	br	2110b8 <get_fat+0x48>
  211208:	1083ffcc 	andi	r2,r2,4095
  21120c:	003faa06 	br	2110b8 <get_fat+0x48>

00211210 <check_fs.part.7>:
/* Load a sector and check if it is an FAT VBR                           */
/*-----------------------------------------------------------------------*/

/* Check what the sector is */

static UINT check_fs (	/* 0:FAT/FAT32 VBR, 1:exFAT VBR, 2:Not FAT and valid BS, 3:Not FAT and invalid BS, 4:Disk error */
  211210:	defffd04 	addi	sp,sp,-12
  211214:	dc000015 	stw	r16,0(sp)
  211218:	dfc00215 	stw	ra,8(sp)
  21121c:	dc400115 	stw	r17,4(sp)
static WORD ld_16 (const BYTE* ptr)	/*	 Load a 2-byte little-endian word */
{
	WORD rv;

	rv = ptr[1];
	rv = rv << 8 | ptr[0];
  211220:	24408bc3 	ldbu	r17,559(r4)
/* Load a sector and check if it is an FAT VBR                           */
/*-----------------------------------------------------------------------*/

/* Check what the sector is */

static UINT check_fs (	/* 0:FAT/FAT32 VBR, 1:exFAT VBR, 2:Not FAT and valid BS, 3:Not FAT and invalid BS, 4:Disk error */
  211224:	2021883a 	mov	r16,r4
  211228:	80c00c03 	ldbu	r3,48(r16)
static WORD ld_16 (const BYTE* ptr)	/*	 Load a 2-byte little-endian word */
{
	WORD rv;

	rv = ptr[1];
	rv = rv << 8 | ptr[0];
  21122c:	21008b83 	ldbu	r4,558(r4)
  211230:	8822923a 	slli	r17,r17,8
  211234:	00803a04 	movi	r2,232
  211238:	8922b03a 	or	r17,r17,r4
  21123c:	1880092e 	bgeu	r3,r2,211264 <check_fs.part.7+0x54>
  211240:	8c7fffcc 	andi	r17,r17,65535
			&& (ld_16(fs->win + BPB_TotSec16) >= 128 || ld_32(fs->win + BPB_TotSec32) >= 0x10000)	/* Properness of volume size (>=128) */
			&& ld_16(fs->win + BPB_FATSz16) != 0) {		/* Properness of FAT size (MNBZ) */
				return 0;	/* It can be presumed an FAT VBR */
		}
	}
	return sign == 0xAA55 ? 2 : 3;	/* Not an FAT VBR (with valid or invalid BS) */
  211244:	00aa9554 	movui	r2,43605
  211248:	8884c03a 	cmpne	r2,r17,r2
  21124c:	10800084 	addi	r2,r2,2
}
  211250:	dfc00217 	ldw	ra,8(sp)
  211254:	dc400117 	ldw	r17,4(sp)
  211258:	dc000017 	ldw	r16,0(sp)
  21125c:	dec00304 	addi	sp,sp,12
  211260:	f800283a 	ret
  211264:	00803a44 	movi	r2,233
#if FF_FS_EXFAT
	if (sign == 0xAA55 && !memcmp(fs->win + BS_JmpBoot, "\xEB\x76\x90" "EXFAT   ", 11)) return 1;	/* It is an exFAT VBR */
#endif
	b = fs->win[BS_JmpBoot];
	if (b == 0xEB || b == 0xE9 || b == 0xE8) {	/* Valid JumpBoot code? (short jump, near jump or near call) */
		if (sign == 0xAA55 && !memcmp(fs->win + BS_FilSysType32, "FAT32   ", 8)) {
  211268:	8c7fffcc 	andi	r17,r17,65535
  21126c:	10c04236 	bltu	r2,r3,211378 <check_fs.part.7+0x168>
  211270:	00aa9554 	movui	r2,43605
  211274:	88804326 	beq	r17,r2,211384 <check_fs.part.7+0x174>
static WORD ld_16 (const BYTE* ptr)	/*	 Load a 2-byte little-endian word */
{
	WORD rv;

	rv = ptr[1];
	rv = rv << 8 | ptr[0];
  211278:	80800f03 	ldbu	r2,60(r16)
  21127c:	80c00ec3 	ldbu	r3,59(r16)
		if (sign == 0xAA55 && !memcmp(fs->win + BS_FilSysType32, "FAT32   ", 8)) {
			return 0;	/* It is an FAT32 VBR */
		}
		/* FAT volumes created in the early MS-DOS era lack BS_55AA and BS_FilSysType, so FAT VBR needs to be identified without them. */
		w = ld_16(fs->win + BPB_BytsPerSec);
		b = fs->win[BPB_SecPerClus];
  211280:	81000f43 	ldbu	r4,61(r16)
static WORD ld_16 (const BYTE* ptr)	/*	 Load a 2-byte little-endian word */
{
	WORD rv;

	rv = ptr[1];
	rv = rv << 8 | ptr[0];
  211284:	1004923a 	slli	r2,r2,8
  211288:	10c4b03a 	or	r2,r2,r3
			return 0;	/* It is an FAT32 VBR */
		}
		/* FAT volumes created in the early MS-DOS era lack BS_55AA and BS_FilSysType, so FAT VBR needs to be identified without them. */
		w = ld_16(fs->win + BPB_BytsPerSec);
		b = fs->win[BPB_SecPerClus];
		if ((w & (w - 1)) == 0 && w >= FF_MIN_SS && w <= FF_MAX_SS	/* Properness of sector size (512-4096 and 2^n) */
  21128c:	10bfffcc 	andi	r2,r2,65535
  211290:	10ffffc4 	addi	r3,r2,-1
  211294:	1886703a 	and	r3,r3,r2
  211298:	183fea1e 	bne	r3,zero,211244 <check_fs.part.7+0x34>
  21129c:	00c08004 	movi	r3,512
  2112a0:	10ffe81e 	bne	r2,r3,211244 <check_fs.part.7+0x34>
			&& b != 0 && (b & (b - 1)) == 0				/* Properness of cluster size (2^n) */
  2112a4:	21003fcc 	andi	r4,r4,255
  2112a8:	203fe626 	beq	r4,zero,211244 <check_fs.part.7+0x34>
  2112ac:	20bfffc4 	addi	r2,r4,-1
  2112b0:	1108703a 	and	r4,r2,r4
  2112b4:	203fe31e 	bne	r4,zero,211244 <check_fs.part.7+0x34>
static WORD ld_16 (const BYTE* ptr)	/*	 Load a 2-byte little-endian word */
{
	WORD rv;

	rv = ptr[1];
	rv = rv << 8 | ptr[0];
  2112b8:	80c00fc3 	ldbu	r3,63(r16)
  2112bc:	80800f83 	ldbu	r2,62(r16)
  2112c0:	1806923a 	slli	r3,r3,8
		/* FAT volumes created in the early MS-DOS era lack BS_55AA and BS_FilSysType, so FAT VBR needs to be identified without them. */
		w = ld_16(fs->win + BPB_BytsPerSec);
		b = fs->win[BPB_SecPerClus];
		if ((w & (w - 1)) == 0 && w >= FF_MIN_SS && w <= FF_MAX_SS	/* Properness of sector size (512-4096 and 2^n) */
			&& b != 0 && (b & (b - 1)) == 0				/* Properness of cluster size (2^n) */
			&& ld_16(fs->win + BPB_RsvdSecCnt) != 0		/* Properness of number of reserved sectors (MNBZ) */
  2112c4:	1884b03a 	or	r2,r3,r2
  2112c8:	10bfffcc 	andi	r2,r2,65535
  2112cc:	10a0001c 	xori	r2,r2,32768
  2112d0:	10a00004 	addi	r2,r2,-32768
  2112d4:	103fdb26 	beq	r2,zero,211244 <check_fs.part.7+0x34>
			&& (UINT)fs->win[BPB_NumFATs] - 1 <= 1		/* Properness of number of FATs (1 or 2) */
  2112d8:	80801003 	ldbu	r2,64(r16)
  2112dc:	00c00044 	movi	r3,1
  2112e0:	10bfffc4 	addi	r2,r2,-1
  2112e4:	18bfd736 	bltu	r3,r2,211244 <check_fs.part.7+0x34>
static WORD ld_16 (const BYTE* ptr)	/*	 Load a 2-byte little-endian word */
{
	WORD rv;

	rv = ptr[1];
	rv = rv << 8 | ptr[0];
  2112e8:	80c01083 	ldbu	r3,66(r16)
  2112ec:	80801043 	ldbu	r2,65(r16)
  2112f0:	1806923a 	slli	r3,r3,8
		b = fs->win[BPB_SecPerClus];
		if ((w & (w - 1)) == 0 && w >= FF_MIN_SS && w <= FF_MAX_SS	/* Properness of sector size (512-4096 and 2^n) */
			&& b != 0 && (b & (b - 1)) == 0				/* Properness of cluster size (2^n) */
			&& ld_16(fs->win + BPB_RsvdSecCnt) != 0		/* Properness of number of reserved sectors (MNBZ) */
			&& (UINT)fs->win[BPB_NumFATs] - 1 <= 1		/* Properness of number of FATs (1 or 2) */
			&& ld_16(fs->win + BPB_RootEntCnt) != 0		/* Properness of root dir size (MNBZ) */
  2112f4:	1884b03a 	or	r2,r3,r2
  2112f8:	10bfffcc 	andi	r2,r2,65535
  2112fc:	10a0001c 	xori	r2,r2,32768
  211300:	10a00004 	addi	r2,r2,-32768
  211304:	103fcf26 	beq	r2,zero,211244 <check_fs.part.7+0x34>
static WORD ld_16 (const BYTE* ptr)	/*	 Load a 2-byte little-endian word */
{
	WORD rv;

	rv = ptr[1];
	rv = rv << 8 | ptr[0];
  211308:	80c01103 	ldbu	r3,68(r16)
  21130c:	808010c3 	ldbu	r2,67(r16)
  211310:	1806923a 	slli	r3,r3,8
		if ((w & (w - 1)) == 0 && w >= FF_MIN_SS && w <= FF_MAX_SS	/* Properness of sector size (512-4096 and 2^n) */
			&& b != 0 && (b & (b - 1)) == 0				/* Properness of cluster size (2^n) */
			&& ld_16(fs->win + BPB_RsvdSecCnt) != 0		/* Properness of number of reserved sectors (MNBZ) */
			&& (UINT)fs->win[BPB_NumFATs] - 1 <= 1		/* Properness of number of FATs (1 or 2) */
			&& ld_16(fs->win + BPB_RootEntCnt) != 0		/* Properness of root dir size (MNBZ) */
			&& (ld_16(fs->win + BPB_TotSec16) >= 128 || ld_32(fs->win + BPB_TotSec32) >= 0x10000)	/* Properness of volume size (>=128) */
  211314:	1884b03a 	or	r2,r3,r2
  211318:	00c01fc4 	movi	r3,127
  21131c:	18800c36 	bltu	r3,r2,211350 <check_fs.part.7+0x140>

static DWORD ld_32 (const BYTE* ptr)	/* Load a 4-byte little-endian word */
{
	DWORD rv;

	rv = ptr[3];
  211320:	814014c3 	ldbu	r5,83(r16)
	rv = rv << 8 | ptr[2];
  211324:	81001483 	ldbu	r4,82(r16)
	rv = rv << 8 | ptr[1];
  211328:	80c01443 	ldbu	r3,81(r16)
static DWORD ld_32 (const BYTE* ptr)	/* Load a 4-byte little-endian word */
{
	DWORD rv;

	rv = ptr[3];
	rv = rv << 8 | ptr[2];
  21132c:	280a923a 	slli	r5,r5,8
	rv = rv << 8 | ptr[1];
	rv = rv << 8 | ptr[0];
  211330:	80801403 	ldbu	r2,80(r16)
static DWORD ld_32 (const BYTE* ptr)	/* Load a 4-byte little-endian word */
{
	DWORD rv;

	rv = ptr[3];
	rv = rv << 8 | ptr[2];
  211334:	2908b03a 	or	r4,r5,r4
	rv = rv << 8 | ptr[1];
  211338:	2008923a 	slli	r4,r4,8
  21133c:	20c6b03a 	or	r3,r4,r3
	rv = rv << 8 | ptr[0];
  211340:	1806923a 	slli	r3,r3,8
  211344:	1884b03a 	or	r2,r3,r2
		if ((w & (w - 1)) == 0 && w >= FF_MIN_SS && w <= FF_MAX_SS	/* Properness of sector size (512-4096 and 2^n) */
			&& b != 0 && (b & (b - 1)) == 0				/* Properness of cluster size (2^n) */
			&& ld_16(fs->win + BPB_RsvdSecCnt) != 0		/* Properness of number of reserved sectors (MNBZ) */
			&& (UINT)fs->win[BPB_NumFATs] - 1 <= 1		/* Properness of number of FATs (1 or 2) */
			&& ld_16(fs->win + BPB_RootEntCnt) != 0		/* Properness of root dir size (MNBZ) */
			&& (ld_16(fs->win + BPB_TotSec16) >= 128 || ld_32(fs->win + BPB_TotSec32) >= 0x10000)	/* Properness of volume size (>=128) */
  211348:	00ffffd4 	movui	r3,65535
  21134c:	18bfbd2e 	bgeu	r3,r2,211244 <check_fs.part.7+0x34>
static WORD ld_16 (const BYTE* ptr)	/*	 Load a 2-byte little-endian word */
{
	WORD rv;

	rv = ptr[1];
	rv = rv << 8 | ptr[0];
  211350:	80c011c3 	ldbu	r3,71(r16)
  211354:	80801183 	ldbu	r2,70(r16)
  211358:	1806923a 	slli	r3,r3,8
			&& b != 0 && (b & (b - 1)) == 0				/* Properness of cluster size (2^n) */
			&& ld_16(fs->win + BPB_RsvdSecCnt) != 0		/* Properness of number of reserved sectors (MNBZ) */
			&& (UINT)fs->win[BPB_NumFATs] - 1 <= 1		/* Properness of number of FATs (1 or 2) */
			&& ld_16(fs->win + BPB_RootEntCnt) != 0		/* Properness of root dir size (MNBZ) */
			&& (ld_16(fs->win + BPB_TotSec16) >= 128 || ld_32(fs->win + BPB_TotSec32) >= 0x10000)	/* Properness of volume size (>=128) */
			&& ld_16(fs->win + BPB_FATSz16) != 0) {		/* Properness of FAT size (MNBZ) */
  21135c:	1884b03a 	or	r2,r3,r2
  211360:	10bfffcc 	andi	r2,r2,65535
  211364:	10a0001c 	xori	r2,r2,32768
  211368:	10a00004 	addi	r2,r2,-32768
  21136c:	103fb526 	beq	r2,zero,211244 <check_fs.part.7+0x34>
	if (sign == 0xAA55 && !memcmp(fs->win + BS_JmpBoot, "\xEB\x76\x90" "EXFAT   ", 11)) return 1;	/* It is an exFAT VBR */
#endif
	b = fs->win[BS_JmpBoot];
	if (b == 0xEB || b == 0xE9 || b == 0xE8) {	/* Valid JumpBoot code? (short jump, near jump or near call) */
		if (sign == 0xAA55 && !memcmp(fs->win + BS_FilSysType32, "FAT32   ", 8)) {
			return 0;	/* It is an FAT32 VBR */
  211370:	0005883a 	mov	r2,zero
  211374:	003fb606 	br	211250 <check_fs.part.7+0x40>
  211378:	00803ac4 	movi	r2,235
  21137c:	18bfb11e 	bne	r3,r2,211244 <check_fs.part.7+0x34>
  211380:	003fbb06 	br	211270 <check_fs.part.7+0x60>
#if FF_FS_EXFAT
	if (sign == 0xAA55 && !memcmp(fs->win + BS_JmpBoot, "\xEB\x76\x90" "EXFAT   ", 11)) return 1;	/* It is an exFAT VBR */
#endif
	b = fs->win[BS_JmpBoot];
	if (b == 0xEB || b == 0xE9 || b == 0xE8) {	/* Valid JumpBoot code? (short jump, near jump or near call) */
		if (sign == 0xAA55 && !memcmp(fs->win + BS_FilSysType32, "FAT32   ", 8)) {
  211384:	81002084 	addi	r4,r16,130
  211388:	014008b4 	movhi	r5,34
  21138c:	296dab04 	addi	r5,r5,-18772
  211390:	01800204 	movi	r6,8
  211394:	021a3800 	call	21a380 <memcmp>
  211398:	103fb71e 	bne	r2,zero,211278 <check_fs.part.7+0x68>
			return 0;	/* It is an FAT32 VBR */
  21139c:	0005883a 	mov	r2,zero
  2113a0:	003fab06 	br	211250 <check_fs.part.7+0x40>

002113a4 <put_fat>:
static FRESULT put_fat (	/* FR_OK(0):succeeded, !=0:error */
	FATFS* fs,		/* Corresponding filesystem object */
	DWORD clst,		/* FAT index number (cluster number) to be changed */
	DWORD val		/* New value to be set to the entry */
)
{
  2113a4:	defffb04 	addi	sp,sp,-20
  2113a8:	dc800315 	stw	r18,12(sp)
  2113ac:	dc400215 	stw	r17,8(sp)
  2113b0:	dc000115 	stw	r16,4(sp)
  2113b4:	dfc00415 	stw	ra,16(sp)
	UINT bc;
	BYTE *p;
	FRESULT res = FR_INT_ERR;


	if (clst >= 2 && clst < fs->n_fatent) {	/* Check if in valid range */
  2113b8:	04800044 	movi	r18,1
static FRESULT put_fat (	/* FR_OK(0):succeeded, !=0:error */
	FATFS* fs,		/* Corresponding filesystem object */
	DWORD clst,		/* FAT index number (cluster number) to be changed */
	DWORD val		/* New value to be set to the entry */
)
{
  2113bc:	2821883a 	mov	r16,r5
  2113c0:	2023883a 	mov	r17,r4
	UINT bc;
	BYTE *p;
	FRESULT res = FR_INT_ERR;


	if (clst >= 2 && clst < fs->n_fatent) {	/* Check if in valid range */
  2113c4:	9140022e 	bgeu	r18,r5,2113d0 <put_fat+0x2c>
  2113c8:	20800517 	ldw	r2,20(r4)
  2113cc:	28800736 	bltu	r5,r2,2113ec <put_fat+0x48>
	DWORD val		/* New value to be set to the entry */
)
{
	UINT bc;
	BYTE *p;
	FRESULT res = FR_INT_ERR;
  2113d0:	00800084 	movi	r2,2
			fs->wflag = 1;
			break;
		}
	}
	return res;
}
  2113d4:	dfc00417 	ldw	ra,16(sp)
  2113d8:	dc800317 	ldw	r18,12(sp)
  2113dc:	dc400217 	ldw	r17,8(sp)
  2113e0:	dc000117 	ldw	r16,4(sp)
  2113e4:	dec00504 	addi	sp,sp,20
  2113e8:	f800283a 	ret
	BYTE *p;
	FRESULT res = FR_INT_ERR;


	if (clst >= 2 && clst < fs->n_fatent) {	/* Check if in valid range */
		switch (fs->fs_type) {
  2113ec:	20c00003 	ldbu	r3,0(r4)
  2113f0:	00800084 	movi	r2,2
  2113f4:	18804626 	beq	r3,r2,211510 <put_fat+0x16c>
  2113f8:	014000c4 	movi	r5,3
  2113fc:	19402726 	beq	r3,r5,21149c <put_fat+0xf8>
  211400:	1cbff41e 	bne	r3,r18,2113d4 <put_fat+0x30>
		case FS_FAT12:
			bc = (UINT)clst; bc += bc / 2;	/* bc: byte offset of the entry */
  211404:	84a4d83a 	srl	r18,r16,r18
			res = move_window(fs, fs->fatbase + (bc / SS(fs)));
  211408:	20800917 	ldw	r2,36(r4)
  21140c:	d9800015 	stw	r6,0(sp)


	if (clst >= 2 && clst < fs->n_fatent) {	/* Check if in valid range */
		switch (fs->fs_type) {
		case FS_FAT12:
			bc = (UINT)clst; bc += bc / 2;	/* bc: byte offset of the entry */
  211410:	9425883a 	add	r18,r18,r16
			res = move_window(fs, fs->fatbase + (bc / SS(fs)));
  211414:	900ad27a 	srli	r5,r18,9
  211418:	288b883a 	add	r5,r5,r2
  21141c:	0210fd00 	call	210fd0 <move_window>
			if (res != FR_OK) break;
  211420:	d9800017 	ldw	r6,0(sp)
  211424:	103feb1e 	bne	r2,zero,2113d4 <put_fat+0x30>
			p = fs->win + bc++ % SS(fs);
			*p = (clst & 1) ? ((*p & 0x0F) | ((BYTE)val << 4)) : (BYTE)val;	/* Update 1st byte */
  211428:	8400004c 	andi	r16,r16,1
		switch (fs->fs_type) {
		case FS_FAT12:
			bc = (UINT)clst; bc += bc / 2;	/* bc: byte offset of the entry */
			res = move_window(fs, fs->fatbase + (bc / SS(fs)));
			if (res != FR_OK) break;
			p = fs->win + bc++ % SS(fs);
  21142c:	90807fcc 	andi	r2,r18,511
  211430:	94800044 	addi	r18,r18,1
			*p = (clst & 1) ? ((*p & 0x0F) | ((BYTE)val << 4)) : (BYTE)val;	/* Update 1st byte */
  211434:	80004626 	beq	r16,zero,211550 <put_fat+0x1ac>
  211438:	8885883a 	add	r2,r17,r2
  21143c:	11000c03 	ldbu	r4,48(r2)
		}
		FREE_NAMEBUFF();
	}

	LEAVE_FF(fs, res);
}
  211440:	30c03fcc 	andi	r3,r6,255
		case FS_FAT12:
			bc = (UINT)clst; bc += bc / 2;	/* bc: byte offset of the entry */
			res = move_window(fs, fs->fatbase + (bc / SS(fs)));
			if (res != FR_OK) break;
			p = fs->win + bc++ % SS(fs);
			*p = (clst & 1) ? ((*p & 0x0F) | ((BYTE)val << 4)) : (BYTE)val;	/* Update 1st byte */
  211444:	1806913a 	slli	r3,r3,4
  211448:	210003cc 	andi	r4,r4,15
  21144c:	20c8b03a 	or	r4,r4,r3
			fs->wflag = 1;
			res = move_window(fs, fs->fatbase + (bc / SS(fs)));
  211450:	88c00917 	ldw	r3,36(r17)
  211454:	900ad27a 	srli	r5,r18,9
		case FS_FAT12:
			bc = (UINT)clst; bc += bc / 2;	/* bc: byte offset of the entry */
			res = move_window(fs, fs->fatbase + (bc / SS(fs)));
			if (res != FR_OK) break;
			p = fs->win + bc++ % SS(fs);
			*p = (clst & 1) ? ((*p & 0x0F) | ((BYTE)val << 4)) : (BYTE)val;	/* Update 1st byte */
  211458:	11000c05 	stb	r4,48(r2)
			fs->wflag = 1;
  21145c:	00800044 	movi	r2,1
  211460:	88800105 	stb	r2,4(r17)
			res = move_window(fs, fs->fatbase + (bc / SS(fs)));
  211464:	8809883a 	mov	r4,r17
  211468:	28cb883a 	add	r5,r5,r3
  21146c:	d9800015 	stw	r6,0(sp)
  211470:	0210fd00 	call	210fd0 <move_window>
			if (res != FR_OK) break;
  211474:	d9800017 	ldw	r6,0(sp)
  211478:	103fd61e 	bne	r2,zero,2113d4 <put_fat+0x30>
			p = fs->win + bc % SS(fs);
  21147c:	94807fcc 	andi	r18,r18,511
			*p = (clst & 1) ? (BYTE)(val >> 4) : ((*p & 0xF0) | ((BYTE)(val >> 8) & 0x0F));	/* Update 2nd byte */
  211480:	80003626 	beq	r16,zero,21155c <put_fat+0x1b8>
  211484:	300cd13a 	srli	r6,r6,4
  211488:	8ca5883a 	add	r18,r17,r18
			fs->wflag = 1;
  21148c:	00c00044 	movi	r3,1
			*p = (clst & 1) ? ((*p & 0x0F) | ((BYTE)val << 4)) : (BYTE)val;	/* Update 1st byte */
			fs->wflag = 1;
			res = move_window(fs, fs->fatbase + (bc / SS(fs)));
			if (res != FR_OK) break;
			p = fs->win + bc % SS(fs);
			*p = (clst & 1) ? (BYTE)(val >> 4) : ((*p & 0xF0) | ((BYTE)(val >> 8) & 0x0F));	/* Update 2nd byte */
  211490:	91800c05 	stb	r6,48(r18)
			fs->wflag = 1;
  211494:	88c00105 	stb	r3,4(r17)
  211498:	003fce06 	br	2113d4 <put_fat+0x30>

		case FS_FAT32:
#if FF_FS_EXFAT
		case FS_EXFAT:
#endif
			res = move_window(fs, fs->fatbase + (clst / (SS(fs) / 4)));
  21149c:	20800917 	ldw	r2,36(r4)
  2114a0:	800ad1fa 	srli	r5,r16,7
  2114a4:	d9800015 	stw	r6,0(sp)
  2114a8:	288b883a 	add	r5,r5,r2
  2114ac:	0210fd00 	call	210fd0 <move_window>
			if (res != FR_OK) break;
  2114b0:	d9800017 	ldw	r6,0(sp)
  2114b4:	103fc71e 	bne	r2,zero,2113d4 <put_fat+0x30>
			if (!FF_FS_EXFAT || fs->fs_type != FS_EXFAT) {
				val = (val & 0x0FFFFFFF) | (ld_32(fs->win + clst * 4 % SS(fs)) & 0xF0000000);
  2114b8:	8421883a 	add	r16,r16,r16
  2114bc:	8421883a 	add	r16,r16,r16
  2114c0:	81007fcc 	andi	r4,r16,511
  2114c4:	20c00c04 	addi	r3,r4,48
  2114c8:	88c7883a 	add	r3,r17,r3

static DWORD ld_32 (const BYTE* ptr)	/* Load a 4-byte little-endian word */
{
	DWORD rv;

	rv = ptr[3];
  2114cc:	194000c3 	ldbu	r5,3(r3)
		case FS_EXFAT:
#endif
			res = move_window(fs, fs->fatbase + (clst / (SS(fs) / 4)));
			if (res != FR_OK) break;
			if (!FF_FS_EXFAT || fs->fs_type != FS_EXFAT) {
				val = (val & 0x0FFFFFFF) | (ld_32(fs->win + clst * 4 % SS(fs)) & 0xF0000000);
  2114d0:	01c40034 	movhi	r7,4096
  2114d4:	39ffffc4 	addi	r7,r7,-1
  2114d8:	31cc703a 	and	r6,r6,r7
	DWORD rv;

	rv = ptr[3];
	rv = rv << 8 | ptr[2];
	rv = rv << 8 | ptr[1];
	rv = rv << 8 | ptr[0];
  2114dc:	280a963a 	slli	r5,r5,24
  2114e0:	8909883a 	add	r4,r17,r4
		case FS_EXFAT:
#endif
			res = move_window(fs, fs->fatbase + (clst / (SS(fs) / 4)));
			if (res != FR_OK) break;
			if (!FF_FS_EXFAT || fs->fs_type != FS_EXFAT) {
				val = (val & 0x0FFFFFFF) | (ld_32(fs->win + clst * 4 % SS(fs)) & 0xF0000000);
  2114e4:	297c002c 	andhi	r5,r5,61440
  2114e8:	298cb03a 	or	r6,r5,r6
	*ptr++ = (BYTE)val;
}

static void st_32 (BYTE* ptr, DWORD val)	/* Store a 4-byte word in little-endian */
{
	*ptr++ = (BYTE)val; val >>= 8;
  2114ec:	3010d23a 	srli	r8,r6,8
	*ptr++ = (BYTE)val; val >>= 8;
  2114f0:	300ed43a 	srli	r7,r6,16
	*ptr++ = (BYTE)val; val >>= 8;
  2114f4:	300ad63a 	srli	r5,r6,24
	*ptr++ = (BYTE)val;
}

static void st_32 (BYTE* ptr, DWORD val)	/* Store a 4-byte word in little-endian */
{
	*ptr++ = (BYTE)val; val >>= 8;
  2114f8:	21800c05 	stb	r6,48(r4)
	*ptr++ = (BYTE)val; val >>= 8;
  2114fc:	1a000045 	stb	r8,1(r3)
	*ptr++ = (BYTE)val; val >>= 8;
  211500:	19c00085 	stb	r7,2(r3)
	*ptr++ = (BYTE)val;
  211504:	194000c5 	stb	r5,3(r3)
			if (res != FR_OK) break;
			if (!FF_FS_EXFAT || fs->fs_type != FS_EXFAT) {
				val = (val & 0x0FFFFFFF) | (ld_32(fs->win + clst * 4 % SS(fs)) & 0xF0000000);
			}
			st_32(fs->win + clst * 4 % SS(fs), val);
			fs->wflag = 1;
  211508:	8c800105 	stb	r18,4(r17)
  21150c:	003fb106 	br	2113d4 <put_fat+0x30>
			*p = (clst & 1) ? (BYTE)(val >> 4) : ((*p & 0xF0) | ((BYTE)(val >> 8) & 0x0F));	/* Update 2nd byte */
			fs->wflag = 1;
			break;

		case FS_FAT16:
			res = move_window(fs, fs->fatbase + (clst / (SS(fs) / 2)));
  211510:	20800917 	ldw	r2,36(r4)
  211514:	280ad23a 	srli	r5,r5,8
  211518:	d9800015 	stw	r6,0(sp)
  21151c:	288b883a 	add	r5,r5,r2
  211520:	0210fd00 	call	210fd0 <move_window>
			if (res != FR_OK) break;
  211524:	d9800017 	ldw	r6,0(sp)
  211528:	103faa1e 	bne	r2,zero,2113d4 <put_fat+0x30>
		}
		FREE_NAMEBUFF();
	}

	LEAVE_FF(fs, res);
}
  21152c:	31bfffcc 	andi	r6,r6,65535
			break;

		case FS_FAT16:
			res = move_window(fs, fs->fatbase + (clst / (SS(fs) / 2)));
			if (res != FR_OK) break;
			st_16(fs->win + clst * 2 % SS(fs), (WORD)val);	/* Simple WORD array */
  211530:	8421883a 	add	r16,r16,r16
#endif

#if !FF_FS_READONLY
static void st_16 (BYTE* ptr, WORD val)	/* Store a 2-byte word in little-endian */
{
	*ptr++ = (BYTE)val; val >>= 8;
  211534:	3006d23a 	srli	r3,r6,8
			break;

		case FS_FAT16:
			res = move_window(fs, fs->fatbase + (clst / (SS(fs) / 2)));
			if (res != FR_OK) break;
			st_16(fs->win + clst * 2 % SS(fs), (WORD)val);	/* Simple WORD array */
  211538:	84007fcc 	andi	r16,r16,511
#endif

#if !FF_FS_READONLY
static void st_16 (BYTE* ptr, WORD val)	/* Store a 2-byte word in little-endian */
{
	*ptr++ = (BYTE)val; val >>= 8;
  21153c:	8c09883a 	add	r4,r17,r16
	*ptr++ = (BYTE)val;
  211540:	20c00c45 	stb	r3,49(r4)
#endif

#if !FF_FS_READONLY
static void st_16 (BYTE* ptr, WORD val)	/* Store a 2-byte word in little-endian */
{
	*ptr++ = (BYTE)val; val >>= 8;
  211544:	21800c05 	stb	r6,48(r4)

		case FS_FAT16:
			res = move_window(fs, fs->fatbase + (clst / (SS(fs) / 2)));
			if (res != FR_OK) break;
			st_16(fs->win + clst * 2 % SS(fs), (WORD)val);	/* Simple WORD array */
			fs->wflag = 1;
  211548:	8c800105 	stb	r18,4(r17)
  21154c:	003fa106 	br	2113d4 <put_fat+0x30>
		case FS_FAT12:
			bc = (UINT)clst; bc += bc / 2;	/* bc: byte offset of the entry */
			res = move_window(fs, fs->fatbase + (bc / SS(fs)));
			if (res != FR_OK) break;
			p = fs->win + bc++ % SS(fs);
			*p = (clst & 1) ? ((*p & 0x0F) | ((BYTE)val << 4)) : (BYTE)val;	/* Update 1st byte */
  211550:	3009883a 	mov	r4,r6
  211554:	8885883a 	add	r2,r17,r2
  211558:	003fbd06 	br	211450 <put_fat+0xac>
			fs->wflag = 1;
			res = move_window(fs, fs->fatbase + (bc / SS(fs)));
			if (res != FR_OK) break;
			p = fs->win + bc % SS(fs);
			*p = (clst & 1) ? (BYTE)(val >> 4) : ((*p & 0xF0) | ((BYTE)(val >> 8) & 0x0F));	/* Update 2nd byte */
  21155c:	8ca5883a 	add	r18,r17,r18
  211560:	3006d23a 	srli	r3,r6,8
  211564:	91400c03 	ldbu	r5,48(r18)
  211568:	013ffc04 	movi	r4,-16
  21156c:	18c003cc 	andi	r3,r3,15
  211570:	2908703a 	and	r4,r5,r4
  211574:	20ccb03a 	or	r6,r4,r3
  211578:	003fc406 	br	21148c <put_fat+0xe8>

0021157c <create_chain>:

static DWORD create_chain (	/* 0:No free cluster, 1:Internal error, 0xFFFFFFFF:Disk error, >=2:New cluster# */
	FFOBJID* obj,		/* Corresponding object */
	DWORD clst			/* Cluster# to stretch, 0:Create a new chain */
)
{
  21157c:	defff804 	addi	sp,sp,-32
  211580:	dd400515 	stw	r21,20(sp)
  211584:	dcc00315 	stw	r19,12(sp)
  211588:	dc800215 	stw	r18,8(sp)
  21158c:	dfc00715 	stw	ra,28(sp)
  211590:	dd800615 	stw	r22,24(sp)
  211594:	dd000415 	stw	r20,16(sp)
  211598:	dc400115 	stw	r17,4(sp)
  21159c:	dc000015 	stw	r16,0(sp)
  2115a0:	2027883a 	mov	r19,r4
  2115a4:	282b883a 	mov	r21,r5
	DWORD cs, ncl, scl;
	FRESULT res;
	FATFS *fs = obj->fs;
  2115a8:	24800017 	ldw	r18,0(r4)


	if (clst == 0) {	/* Create a new chain */
  2115ac:	28001c1e 	bne	r5,zero,211620 <create_chain+0xa4>
		scl = fs->last_clst;				/* Suggested cluster to start to find */
  2115b0:	94400317 	ldw	r17,12(r18)
		if (scl == 0 || scl >= fs->n_fatent) scl = 1;
  2115b4:	8800171e 	bne	r17,zero,211614 <create_chain+0x98>
  2115b8:	04400044 	movi	r17,1
		if (cs < 2) return 1;				/* Test for insanity */
		if (cs == 0xFFFFFFFF) return cs;	/* Test for disk error */
		if (cs < fs->n_fatent) return cs;	/* It is already followed by next cluster */
		scl = clst;							/* Cluster to start to find */
	}
	if (fs->free_clst == 0) return 0;		/* No free cluster */
  2115bc:	90800417 	ldw	r2,16(r18)
  2115c0:	10004226 	beq	r2,zero,2116cc <create_chain+0x150>
  2115c4:	90800517 	ldw	r2,20(r18)
				cs = fs->last_clst;				/* Start at suggested cluster if it is valid */
				if (cs >= 2 && cs < fs->n_fatent) scl = cs;
				ncl = 0;
			}
		}
		if (ncl == 0) {	/* The new cluster cannot be contiguous and find another fragment */
  2115c8:	8821883a 	mov	r16,r17
			ncl = scl;	/* Start cluster */
			for (;;) {
				ncl++;							/* Next cluster */
  2115cc:	84000044 	addi	r16,r16,1
				if (ncl >= fs->n_fatent) {		/* Check wrap-around */
					ncl = 2;
					if (ncl > scl) return 0;	/* No free cluster found? */
  2115d0:	05000044 	movi	r20,1
				}
				cs = get_fat(obj, ncl);			/* Get the cluster status */
				if (cs == 0) break;				/* Found a free cluster? */
				if (cs == 1 || cs == 0xFFFFFFFF) return cs;	/* Test for error */
  2115d4:	05bfffc4 	movi	r22,-1
				ncl++;							/* Next cluster */
				if (ncl >= fs->n_fatent) {		/* Check wrap-around */
					ncl = 2;
					if (ncl > scl) return 0;	/* No free cluster found? */
				}
				cs = get_fat(obj, ncl);			/* Get the cluster status */
  2115d8:	9809883a 	mov	r4,r19
		}
		if (ncl == 0) {	/* The new cluster cannot be contiguous and find another fragment */
			ncl = scl;	/* Start cluster */
			for (;;) {
				ncl++;							/* Next cluster */
				if (ncl >= fs->n_fatent) {		/* Check wrap-around */
  2115dc:	80800236 	bltu	r16,r2,2115e8 <create_chain+0x6c>
					ncl = 2;
					if (ncl > scl) return 0;	/* No free cluster found? */
  2115e0:	a4403a2e 	bgeu	r20,r17,2116cc <create_chain+0x150>
		if (ncl == 0) {	/* The new cluster cannot be contiguous and find another fragment */
			ncl = scl;	/* Start cluster */
			for (;;) {
				ncl++;							/* Next cluster */
				if (ncl >= fs->n_fatent) {		/* Check wrap-around */
					ncl = 2;
  2115e4:	04000084 	movi	r16,2
					if (ncl > scl) return 0;	/* No free cluster found? */
				}
				cs = get_fat(obj, ncl);			/* Get the cluster status */
  2115e8:	800b883a 	mov	r5,r16
  2115ec:	02110700 	call	211070 <get_fat>
				if (cs == 0) break;				/* Found a free cluster? */
  2115f0:	10004d26 	beq	r2,zero,211728 <create_chain+0x1ac>
				if (cs == 1 || cs == 0xFFFFFFFF) return cs;	/* Test for error */
  2115f4:	15004426 	beq	r2,r20,211708 <create_chain+0x18c>
  2115f8:	15804126 	beq	r2,r22,211700 <create_chain+0x184>
				if (ncl == scl) return 0;		/* No free cluster found? */
  2115fc:	84403326 	beq	r16,r17,2116cc <create_chain+0x150>
  211600:	90800517 	ldw	r2,20(r18)
			}
		}
		if (ncl == 0) {	/* The new cluster cannot be contiguous and find another fragment */
			ncl = scl;	/* Start cluster */
			for (;;) {
				ncl++;							/* Next cluster */
  211604:	84000044 	addi	r16,r16,1
				if (ncl >= fs->n_fatent) {		/* Check wrap-around */
					ncl = 2;
					if (ncl > scl) return 0;	/* No free cluster found? */
				}
				cs = get_fat(obj, ncl);			/* Get the cluster status */
  211608:	9809883a 	mov	r4,r19
		}
		if (ncl == 0) {	/* The new cluster cannot be contiguous and find another fragment */
			ncl = scl;	/* Start cluster */
			for (;;) {
				ncl++;							/* Next cluster */
				if (ncl >= fs->n_fatent) {		/* Check wrap-around */
  21160c:	80bff42e 	bgeu	r16,r2,2115e0 <create_chain+0x64>
  211610:	003ff506 	br	2115e8 <create_chain+0x6c>
	FATFS *fs = obj->fs;


	if (clst == 0) {	/* Create a new chain */
		scl = fs->last_clst;				/* Suggested cluster to start to find */
		if (scl == 0 || scl >= fs->n_fatent) scl = 1;
  211614:	90800517 	ldw	r2,20(r18)
  211618:	88bfe72e 	bgeu	r17,r2,2115b8 <create_chain+0x3c>
  21161c:	003fe706 	br	2115bc <create_chain+0x40>
	}
	else {				/* Stretch a chain */
		cs = get_fat(obj, clst);			/* Check the cluster status */
  211620:	02110700 	call	211070 <get_fat>
		if (cs < 2) return 1;				/* Test for insanity */
  211624:	00c00044 	movi	r3,1
  211628:	1880372e 	bgeu	r3,r2,211708 <create_chain+0x18c>
		if (cs == 0xFFFFFFFF) return cs;	/* Test for disk error */
  21162c:	00ffffc4 	movi	r3,-1
  211630:	10c03326 	beq	r2,r3,211700 <create_chain+0x184>
		if (cs < fs->n_fatent) return cs;	/* It is already followed by next cluster */
  211634:	90c00517 	ldw	r3,20(r18)
  211638:	10c02536 	bltu	r2,r3,2116d0 <create_chain+0x154>
		scl = clst;							/* Cluster to start to find */
	}
	if (fs->free_clst == 0) return 0;		/* No free cluster */
  21163c:	90800417 	ldw	r2,16(r18)
  211640:	10002226 	beq	r2,zero,2116cc <create_chain+0x150>
	} else
#endif
	{	/* On the FAT/FAT32 volume */
		ncl = 0;
		if (scl == clst) {						/* Stretching an existing chain? */
			ncl = scl + 1;						/* Test if next cluster is free */
  211644:	ac000044 	addi	r16,r21,1
			if (ncl >= fs->n_fatent) ncl = 2;
  211648:	80c00136 	bltu	r16,r3,211650 <create_chain+0xd4>
  21164c:	04000084 	movi	r16,2
			cs = get_fat(obj, ncl);				/* Get next cluster status */
  211650:	9809883a 	mov	r4,r19
  211654:	800b883a 	mov	r5,r16
  211658:	02110700 	call	211070 <get_fat>
			if (cs == 1 || cs == 0xFFFFFFFF) return cs;	/* Test for error */
  21165c:	00c00044 	movi	r3,1
  211660:	10c02926 	beq	r2,r3,211708 <create_chain+0x18c>
  211664:	01bfffc4 	movi	r6,-1
  211668:	11802526 	beq	r2,r6,211700 <create_chain+0x184>
			if (cs != 0) {						/* Not free? */
  21166c:	1000281e 	bne	r2,zero,211710 <create_chain+0x194>
				cs = fs->last_clst;				/* Start at suggested cluster if it is valid */
				if (cs >= 2 && cs < fs->n_fatent) scl = cs;
				ncl = 0;
			}
		}
		if (ncl == 0) {	/* The new cluster cannot be contiguous and find another fragment */
  211670:	80003626 	beq	r16,zero,21174c <create_chain+0x1d0>
				if (cs == 0) break;				/* Found a free cluster? */
				if (cs == 1 || cs == 0xFFFFFFFF) return cs;	/* Test for error */
				if (ncl == scl) return 0;		/* No free cluster found? */
			}
		}
		res = put_fat(fs, ncl, 0xFFFFFFFF);		/* Mark the new cluster 'EOC' */
  211674:	9009883a 	mov	r4,r18
  211678:	800b883a 	mov	r5,r16
  21167c:	02113a40 	call	2113a4 <put_fat>
		if (res == FR_OK && clst != 0) {
  211680:	10001d1e 	bne	r2,zero,2116f8 <create_chain+0x17c>
			res = put_fat(fs, clst, ncl);		/* Link it from the previous one if needed */
  211684:	9009883a 	mov	r4,r18
  211688:	a80b883a 	mov	r5,r21
  21168c:	800d883a 	mov	r6,r16
  211690:	02113a40 	call	2113a4 <put_fat>
		}
	}

	if (res == FR_OK) {			/* Update allocation information if the function succeeded */
  211694:	1000181e 	bne	r2,zero,2116f8 <create_chain+0x17c>
		fs->last_clst = ncl;
		if (fs->free_clst > 0 && fs->free_clst <= fs->n_fatent - 2) {
  211698:	90800417 	ldw	r2,16(r18)
			res = put_fat(fs, clst, ncl);		/* Link it from the previous one if needed */
		}
	}

	if (res == FR_OK) {			/* Update allocation information if the function succeeded */
		fs->last_clst = ncl;
  21169c:	94000315 	stw	r16,12(r18)
		if (fs->free_clst > 0 && fs->free_clst <= fs->n_fatent - 2) {
  2116a0:	10002826 	beq	r2,zero,211744 <create_chain+0x1c8>
  2116a4:	90c00517 	ldw	r3,20(r18)
  2116a8:	18ffff84 	addi	r3,r3,-2
  2116ac:	18802536 	bltu	r3,r2,211744 <create_chain+0x1c8>
			fs->free_clst--;
			fs->fsi_flag |= 1;
  2116b0:	90c00143 	ldbu	r3,5(r18)
	}

	if (res == FR_OK) {			/* Update allocation information if the function succeeded */
		fs->last_clst = ncl;
		if (fs->free_clst > 0 && fs->free_clst <= fs->n_fatent - 2) {
			fs->free_clst--;
  2116b4:	10bfffc4 	addi	r2,r2,-1
  2116b8:	90800415 	stw	r2,16(r18)
			fs->fsi_flag |= 1;
  2116bc:	18800054 	ori	r2,r3,1
  2116c0:	90800145 	stb	r2,5(r18)
  2116c4:	8005883a 	mov	r2,r16
  2116c8:	00000106 	br	2116d0 <create_chain+0x154>
			ncl = scl;	/* Start cluster */
			for (;;) {
				ncl++;							/* Next cluster */
				if (ncl >= fs->n_fatent) {		/* Check wrap-around */
					ncl = 2;
					if (ncl > scl) return 0;	/* No free cluster found? */
  2116cc:	0005883a 	mov	r2,zero
	} else {
		ncl = (res == FR_DISK_ERR) ? 0xFFFFFFFF : 1;	/* Failed. Generate error status */
	}

	return ncl;		/* Return new cluster number or error status */
}
  2116d0:	dfc00717 	ldw	ra,28(sp)
  2116d4:	dd800617 	ldw	r22,24(sp)
  2116d8:	dd400517 	ldw	r21,20(sp)
  2116dc:	dd000417 	ldw	r20,16(sp)
  2116e0:	dcc00317 	ldw	r19,12(sp)
  2116e4:	dc800217 	ldw	r18,8(sp)
  2116e8:	dc400117 	ldw	r17,4(sp)
  2116ec:	dc000017 	ldw	r16,0(sp)
  2116f0:	dec00804 	addi	sp,sp,32
  2116f4:	f800283a 	ret
		if (fs->free_clst > 0 && fs->free_clst <= fs->n_fatent - 2) {
			fs->free_clst--;
			fs->fsi_flag |= 1;
		}
	} else {
		ncl = (res == FR_DISK_ERR) ? 0xFFFFFFFF : 1;	/* Failed. Generate error status */
  2116f8:	04000044 	movi	r16,1
  2116fc:	1400111e 	bne	r2,r16,211744 <create_chain+0x1c8>
		scl = fs->last_clst;				/* Suggested cluster to start to find */
		if (scl == 0 || scl >= fs->n_fatent) scl = 1;
	}
	else {				/* Stretch a chain */
		cs = get_fat(obj, clst);			/* Check the cluster status */
		if (cs < 2) return 1;				/* Test for insanity */
  211700:	00bfffc4 	movi	r2,-1
  211704:	003ff206 	br	2116d0 <create_chain+0x154>
  211708:	00800044 	movi	r2,1
  21170c:	003ff006 	br	2116d0 <create_chain+0x154>
			ncl = scl + 1;						/* Test if next cluster is free */
			if (ncl >= fs->n_fatent) ncl = 2;
			cs = get_fat(obj, ncl);				/* Get next cluster status */
			if (cs == 1 || cs == 0xFFFFFFFF) return cs;	/* Test for error */
			if (cs != 0) {						/* Not free? */
				cs = fs->last_clst;				/* Start at suggested cluster if it is valid */
  211710:	94400317 	ldw	r17,12(r18)
				if (cs >= 2 && cs < fs->n_fatent) scl = cs;
  211714:	90800517 	ldw	r2,20(r18)
  211718:	1c40012e 	bgeu	r3,r17,211720 <create_chain+0x1a4>
  21171c:	88bfaa36 	bltu	r17,r2,2115c8 <create_chain+0x4c>
				ncl = 0;
			}
		}
		if (ncl == 0) {	/* The new cluster cannot be contiguous and find another fragment */
  211720:	a823883a 	mov	r17,r21
  211724:	003fa806 	br	2115c8 <create_chain+0x4c>
				if (cs == 0) break;				/* Found a free cluster? */
				if (cs == 1 || cs == 0xFFFFFFFF) return cs;	/* Test for error */
				if (ncl == scl) return 0;		/* No free cluster found? */
			}
		}
		res = put_fat(fs, ncl, 0xFFFFFFFF);		/* Mark the new cluster 'EOC' */
  211728:	9009883a 	mov	r4,r18
  21172c:	800b883a 	mov	r5,r16
  211730:	01bfffc4 	movi	r6,-1
  211734:	02113a40 	call	2113a4 <put_fat>
		if (res == FR_OK && clst != 0) {
  211738:	103fef1e 	bne	r2,zero,2116f8 <create_chain+0x17c>
  21173c:	a83fd626 	beq	r21,zero,211698 <create_chain+0x11c>
  211740:	003fd006 	br	211684 <create_chain+0x108>
		}
	}

	if (res == FR_OK) {			/* Update allocation information if the function succeeded */
		fs->last_clst = ncl;
		if (fs->free_clst > 0 && fs->free_clst <= fs->n_fatent - 2) {
  211744:	8005883a 	mov	r2,r16
  211748:	003fe106 	br	2116d0 <create_chain+0x154>
  21174c:	90800517 	ldw	r2,20(r18)
				cs = fs->last_clst;				/* Start at suggested cluster if it is valid */
				if (cs >= 2 && cs < fs->n_fatent) scl = cs;
				ncl = 0;
			}
		}
		if (ncl == 0) {	/* The new cluster cannot be contiguous and find another fragment */
  211750:	a823883a 	mov	r17,r21
  211754:	003f9c06 	br	2115c8 <create_chain+0x4c>

00211758 <remove_chain>:
static FRESULT remove_chain (	/* FR_OK(0):succeeded, !=0:error */
	FFOBJID* obj,		/* Corresponding object */
	DWORD clst,			/* Cluster to remove a chain from */
	DWORD pclst			/* Previous cluster of clst (0 if entire chain) */
)
{
  211758:	defffa04 	addi	sp,sp,-24
  21175c:	dc800215 	stw	r18,8(sp)
  211760:	dc400115 	stw	r17,4(sp)
  211764:	dc000015 	stw	r16,0(sp)
  211768:	dfc00515 	stw	ra,20(sp)
  21176c:	dd000415 	stw	r20,16(sp)
  211770:	dcc00315 	stw	r19,12(sp)
#endif
#if FF_USE_TRIM
	LBA_t rt[2];
#endif

	if (clst < 2 || clst >= fs->n_fatent) return FR_INT_ERR;	/* Check if in valid range */
  211774:	00800044 	movi	r2,1
static FRESULT remove_chain (	/* FR_OK(0):succeeded, !=0:error */
	FFOBJID* obj,		/* Corresponding object */
	DWORD clst,			/* Cluster to remove a chain from */
	DWORD pclst			/* Previous cluster of clst (0 if entire chain) */
)
{
  211778:	2025883a 	mov	r18,r4
  21177c:	2821883a 	mov	r16,r5
	FRESULT res = FR_OK;
	DWORD nxt;
	FATFS *fs = obj->fs;
  211780:	24400017 	ldw	r17,0(r4)
#endif
#if FF_USE_TRIM
	LBA_t rt[2];
#endif

	if (clst < 2 || clst >= fs->n_fatent) return FR_INT_ERR;	/* Check if in valid range */
  211784:	1140022e 	bgeu	r2,r5,211790 <remove_chain+0x38>
  211788:	88800517 	ldw	r2,20(r17)
  21178c:	28800936 	bltu	r5,r2,2117b4 <remove_chain+0x5c>
  211790:	00800084 	movi	r2,2
			}
		}
	}
#endif
	return FR_OK;
}
  211794:	dfc00517 	ldw	ra,20(sp)
  211798:	dd000417 	ldw	r20,16(sp)
  21179c:	dcc00317 	ldw	r19,12(sp)
  2117a0:	dc800217 	ldw	r18,8(sp)
  2117a4:	dc400117 	ldw	r17,4(sp)
  2117a8:	dc000017 	ldw	r16,0(sp)
  2117ac:	dec00604 	addi	sp,sp,24
  2117b0:	f800283a 	ret
#endif

	if (clst < 2 || clst >= fs->n_fatent) return FR_INT_ERR;	/* Check if in valid range */

	/* Mark the previous cluster 'EOC' on the FAT if it exists */
	if (pclst != 0 && (!FF_FS_EXFAT || fs->fs_type != FS_EXFAT || obj->stat != 2)) {
  2117b4:	3000211e 	bne	r6,zero,21183c <remove_chain+0xe4>

	/* Remove the chain */
	do {
		nxt = get_fat(obj, clst);			/* Get cluster status */
		if (nxt == 0) break;				/* Empty cluster? */
		if (nxt == 1) return FR_INT_ERR;	/* Internal error? */
  2117b8:	04c00044 	movi	r19,1
		if (nxt == 0xFFFFFFFF) return FR_DISK_ERR;	/* Disk error? */
  2117bc:	053fffc4 	movi	r20,-1
		if (res != FR_OK) return res;
	}

	/* Remove the chain */
	do {
		nxt = get_fat(obj, clst);			/* Get cluster status */
  2117c0:	800b883a 	mov	r5,r16
  2117c4:	9009883a 	mov	r4,r18
  2117c8:	02110700 	call	211070 <get_fat>
		if (nxt == 0) break;				/* Empty cluster? */
		if (nxt == 1) return FR_INT_ERR;	/* Internal error? */
		if (nxt == 0xFFFFFFFF) return FR_DISK_ERR;	/* Disk error? */
		if (!FF_FS_EXFAT || fs->fs_type != FS_EXFAT) {
			res = put_fat(fs, clst, 0);		/* Mark the cluster 'free' on the FAT */
  2117cc:	800b883a 	mov	r5,r16
  2117d0:	8809883a 	mov	r4,r17
  2117d4:	000d883a 	mov	r6,zero
  2117d8:	1021883a 	mov	r16,r2
	}

	/* Remove the chain */
	do {
		nxt = get_fat(obj, clst);			/* Get cluster status */
		if (nxt == 0) break;				/* Empty cluster? */
  2117dc:	10000e26 	beq	r2,zero,211818 <remove_chain+0xc0>
		if (nxt == 1) return FR_INT_ERR;	/* Internal error? */
  2117e0:	14ffeb26 	beq	r2,r19,211790 <remove_chain+0x38>
		if (nxt == 0xFFFFFFFF) return FR_DISK_ERR;	/* Disk error? */
  2117e4:	15001b26 	beq	r2,r20,211854 <remove_chain+0xfc>
		if (!FF_FS_EXFAT || fs->fs_type != FS_EXFAT) {
			res = put_fat(fs, clst, 0);		/* Mark the cluster 'free' on the FAT */
  2117e8:	02113a40 	call	2113a4 <put_fat>
			if (res != FR_OK) return res;
  2117ec:	103fe91e 	bne	r2,zero,211794 <remove_chain+0x3c>
		}
		if (fs->free_clst < fs->n_fatent - 2) {	/* Update allocation information if it is valid */
  2117f0:	88800517 	ldw	r2,20(r17)
  2117f4:	88c00417 	ldw	r3,16(r17)
  2117f8:	113fff84 	addi	r4,r2,-2
			fs->free_clst++;
  2117fc:	19400044 	addi	r5,r3,1
		if (nxt == 0xFFFFFFFF) return FR_DISK_ERR;	/* Disk error? */
		if (!FF_FS_EXFAT || fs->fs_type != FS_EXFAT) {
			res = put_fat(fs, clst, 0);		/* Mark the cluster 'free' on the FAT */
			if (res != FR_OK) return res;
		}
		if (fs->free_clst < fs->n_fatent - 2) {	/* Update allocation information if it is valid */
  211800:	1900042e 	bgeu	r3,r4,211814 <remove_chain+0xbc>
			fs->free_clst++;
			fs->fsi_flag |= 1;
  211804:	88c00143 	ldbu	r3,5(r17)
		if (!FF_FS_EXFAT || fs->fs_type != FS_EXFAT) {
			res = put_fat(fs, clst, 0);		/* Mark the cluster 'free' on the FAT */
			if (res != FR_OK) return res;
		}
		if (fs->free_clst < fs->n_fatent - 2) {	/* Update allocation information if it is valid */
			fs->free_clst++;
  211808:	89400415 	stw	r5,16(r17)
			fs->fsi_flag |= 1;
  21180c:	18c00054 	ori	r3,r3,1
  211810:	88c00145 	stb	r3,5(r17)
#endif
			scl = ecl = nxt;
		}
#endif
		clst = nxt;					/* Next cluster */
	} while (clst < fs->n_fatent);	/* Repeat until the last link */
  211814:	80bfea36 	bltu	r16,r2,2117c0 <remove_chain+0x68>
				}
			}
		}
	}
#endif
	return FR_OK;
  211818:	0005883a 	mov	r2,zero
}
  21181c:	dfc00517 	ldw	ra,20(sp)
  211820:	dd000417 	ldw	r20,16(sp)
  211824:	dcc00317 	ldw	r19,12(sp)
  211828:	dc800217 	ldw	r18,8(sp)
  21182c:	dc400117 	ldw	r17,4(sp)
  211830:	dc000017 	ldw	r16,0(sp)
  211834:	dec00604 	addi	sp,sp,24
  211838:	f800283a 	ret

	if (clst < 2 || clst >= fs->n_fatent) return FR_INT_ERR;	/* Check if in valid range */

	/* Mark the previous cluster 'EOC' on the FAT if it exists */
	if (pclst != 0 && (!FF_FS_EXFAT || fs->fs_type != FS_EXFAT || obj->stat != 2)) {
		res = put_fat(fs, pclst, 0xFFFFFFFF);
  21183c:	300b883a 	mov	r5,r6
  211840:	8809883a 	mov	r4,r17
  211844:	01bfffc4 	movi	r6,-1
  211848:	02113a40 	call	2113a4 <put_fat>
		if (res != FR_OK) return res;
  21184c:	103fda26 	beq	r2,zero,2117b8 <remove_chain+0x60>
  211850:	003fd006 	br	211794 <remove_chain+0x3c>
	/* Remove the chain */
	do {
		nxt = get_fat(obj, clst);			/* Get cluster status */
		if (nxt == 0) break;				/* Empty cluster? */
		if (nxt == 1) return FR_INT_ERR;	/* Internal error? */
		if (nxt == 0xFFFFFFFF) return FR_DISK_ERR;	/* Disk error? */
  211854:	00800044 	movi	r2,1
  211858:	003fce06 	br	211794 <remove_chain+0x3c>

0021185c <dir_sdi.constprop.12>:

/*-----------------------------------------------------------------------*/
/* Directory handling - Set directory index                              */
/*-----------------------------------------------------------------------*/

static FRESULT dir_sdi (	/* FR_OK(0):succeeded, !=0:error */
  21185c:	defffa04 	addi	sp,sp,-24
  211860:	dc000015 	stw	r16,0(sp)

	if (ofs >= (DWORD)((FF_FS_EXFAT && fs->fs_type == FS_EXFAT) ? MAX_DIR_EX : MAX_DIR) || ofs % SZDIRE) {	/* Check range of offset and alignment */
		return FR_INT_ERR;
	}
	dp->dptr = ofs;				/* Set current offset */
	clst = dp->obj.sclust;		/* Table start cluster (0:root) */
  211864:	24000217 	ldw	r16,8(r4)

/*-----------------------------------------------------------------------*/
/* Directory handling - Set directory index                              */
/*-----------------------------------------------------------------------*/

static FRESULT dir_sdi (	/* FR_OK(0):succeeded, !=0:error */
  211868:	dc800215 	stw	r18,8(sp)
  21186c:	dc400115 	stw	r17,4(sp)
  211870:	dfc00515 	stw	ra,20(sp)
  211874:	dd000415 	stw	r20,16(sp)
  211878:	dcc00315 	stw	r19,12(sp)


	if (ofs >= (DWORD)((FF_FS_EXFAT && fs->fs_type == FS_EXFAT) ? MAX_DIR_EX : MAX_DIR) || ofs % SZDIRE) {	/* Check range of offset and alignment */
		return FR_INT_ERR;
	}
	dp->dptr = ofs;				/* Set current offset */
  21187c:	20000415 	stw	zero,16(r4)

/*-----------------------------------------------------------------------*/
/* Directory handling - Set directory index                              */
/*-----------------------------------------------------------------------*/

static FRESULT dir_sdi (	/* FR_OK(0):succeeded, !=0:error */
  211880:	2023883a 	mov	r17,r4
	DIR* dp,		/* Pointer to directory object */
	DWORD ofs		/* Offset of directory table */
)
{
	DWORD csz, clst;
	FATFS *fs = dp->obj.fs;
  211884:	24800017 	ldw	r18,0(r4)
	if (ofs >= (DWORD)((FF_FS_EXFAT && fs->fs_type == FS_EXFAT) ? MAX_DIR_EX : MAX_DIR) || ofs % SZDIRE) {	/* Check range of offset and alignment */
		return FR_INT_ERR;
	}
	dp->dptr = ofs;				/* Set current offset */
	clst = dp->obj.sclust;		/* Table start cluster (0:root) */
	if (clst == 0 && fs->fs_type >= FS_FAT32) {	/* Replace cluster# 0 with root cluster# */
  211888:	8000061e 	bne	r16,zero,2118a4 <dir_sdi.constprop.12+0x48>
  21188c:	90800003 	ldbu	r2,0(r18)
  211890:	00c00084 	movi	r3,2
  211894:	1880082e 	bgeu	r3,r2,2118b8 <dir_sdi.constprop.12+0x5c>
		clst = (DWORD)fs->dirbase;
  211898:	90800a17 	ldw	r2,40(r18)
		if (FF_FS_EXFAT) dp->obj.stat = 0;	/* exFAT: Root dir has an FAT chain */
	}

	if (clst == 0) {	/* Static table (root-directory on the FAT volume) */
  21189c:	10000626 	beq	r2,zero,2118b8 <dir_sdi.constprop.12+0x5c>
  2118a0:	1021883a 	mov	r16,r2
		if (ofs / SZDIRE >= fs->n_rootdir) return FR_INT_ERR;	/* Is index out of range? */
		dp->sect = fs->dirbase;

	} else {			/* Dynamic table (sub-directory or root-directory on the FAT32/exFAT volume) */
		csz = (DWORD)fs->csize * SS(fs);	/* Bytes per cluster */
  2118a4:	9140028b 	ldhu	r5,10(r18)
		while (ofs >= csz) {				/* Follow cluster chain */
  2118a8:	2800201e 	bne	r5,zero,21192c <dir_sdi.constprop.12+0xd0>
			clst = get_fat(&dp->obj, clst);				/* Get next cluster */
			if (clst == 0xFFFFFFFF) return FR_DISK_ERR;	/* Disk error */
  2118ac:	04ffffc4 	movi	r19,-1
			if (clst < 2 || clst >= fs->n_fatent) return FR_INT_ERR;	/* Reached to end of table or internal error */
  2118b0:	05000044 	movi	r20,1
  2118b4:	00000e06 	br	2118f0 <dir_sdi.constprop.12+0x94>
		clst = (DWORD)fs->dirbase;
		if (FF_FS_EXFAT) dp->obj.stat = 0;	/* exFAT: Root dir has an FAT chain */
	}

	if (clst == 0) {	/* Static table (root-directory on the FAT volume) */
		if (ofs / SZDIRE >= fs->n_rootdir) return FR_INT_ERR;	/* Is index out of range? */
  2118b8:	9080020b 	ldhu	r2,8(r18)
  2118bc:	1000131e 	bne	r2,zero,21190c <dir_sdi.constprop.12+0xb0>
  2118c0:	00800084 	movi	r2,2
	if (dp->sect == 0) return FR_INT_ERR;
	dp->sect += ofs / SS(fs);			/* Sector# of the directory entry */
	dp->dir = fs->win + (ofs % SS(fs));	/* Pointer to the entry in the win[] */

	return FR_OK;
}
  2118c4:	dfc00517 	ldw	ra,20(sp)
  2118c8:	dd000417 	ldw	r20,16(sp)
  2118cc:	dcc00317 	ldw	r19,12(sp)
  2118d0:	dc800217 	ldw	r18,8(sp)
  2118d4:	dc400117 	ldw	r17,4(sp)
  2118d8:	dc000017 	ldw	r16,0(sp)
  2118dc:	dec00604 	addi	sp,sp,24
  2118e0:	f800283a 	ret
	} else {			/* Dynamic table (sub-directory or root-directory on the FAT32/exFAT volume) */
		csz = (DWORD)fs->csize * SS(fs);	/* Bytes per cluster */
		while (ofs >= csz) {				/* Follow cluster chain */
			clst = get_fat(&dp->obj, clst);				/* Get next cluster */
			if (clst == 0xFFFFFFFF) return FR_DISK_ERR;	/* Disk error */
			if (clst < 2 || clst >= fs->n_fatent) return FR_INT_ERR;	/* Reached to end of table or internal error */
  2118e4:	a0bff62e 	bgeu	r20,r2,2118c0 <dir_sdi.constprop.12+0x64>
  2118e8:	90800517 	ldw	r2,20(r18)
  2118ec:	80bff42e 	bgeu	r16,r2,2118c0 <dir_sdi.constprop.12+0x64>
		dp->sect = fs->dirbase;

	} else {			/* Dynamic table (sub-directory or root-directory on the FAT32/exFAT volume) */
		csz = (DWORD)fs->csize * SS(fs);	/* Bytes per cluster */
		while (ofs >= csz) {				/* Follow cluster chain */
			clst = get_fat(&dp->obj, clst);				/* Get next cluster */
  2118f0:	800b883a 	mov	r5,r16
  2118f4:	8809883a 	mov	r4,r17
  2118f8:	02110700 	call	211070 <get_fat>
  2118fc:	1021883a 	mov	r16,r2
			if (clst == 0xFFFFFFFF) return FR_DISK_ERR;	/* Disk error */
  211900:	14fff81e 	bne	r2,r19,2118e4 <dir_sdi.constprop.12+0x88>
  211904:	00800044 	movi	r2,1
  211908:	003fee06 	br	2118c4 <dir_sdi.constprop.12+0x68>
		if (FF_FS_EXFAT) dp->obj.stat = 0;	/* exFAT: Root dir has an FAT chain */
	}

	if (clst == 0) {	/* Static table (root-directory on the FAT volume) */
		if (ofs / SZDIRE >= fs->n_rootdir) return FR_INT_ERR;	/* Is index out of range? */
		dp->sect = fs->dirbase;
  21190c:	90800a17 	ldw	r2,40(r18)
  211910:	88800615 	stw	r2,24(r17)
			if (clst < 2 || clst >= fs->n_fatent) return FR_INT_ERR;	/* Reached to end of table or internal error */
			ofs -= csz;
		}
		dp->sect = clst2sect(fs, clst);
	}
	dp->clust = clst;					/* Current cluster# */
  211914:	8c000515 	stw	r16,20(r17)
	if (dp->sect == 0) return FR_INT_ERR;
  211918:	103fe926 	beq	r2,zero,2118c0 <dir_sdi.constprop.12+0x64>
	dp->sect += ofs / SS(fs);			/* Sector# of the directory entry */
	dp->dir = fs->win + (ofs % SS(fs));	/* Pointer to the entry in the win[] */
  21191c:	94800c04 	addi	r18,r18,48
  211920:	8c800715 	stw	r18,28(r17)

	return FR_OK;
  211924:	0005883a 	mov	r2,zero
  211928:	003fe606 	br	2118c4 <dir_sdi.constprop.12+0x68>
	FATFS* fs,		/* Filesystem object */
	DWORD clst		/* Cluster# to be converted */
)
{
	clst -= 2;		/* Cluster number is origin from 2 */
	if (clst >= fs->n_fatent - 2) return 0;		/* Is it invalid cluster number? */
  21192c:	90800517 	ldw	r2,20(r18)
static LBA_t clst2sect (	/* !=0:Sector number, 0:Failed (invalid cluster#) */
	FATFS* fs,		/* Filesystem object */
	DWORD clst		/* Cluster# to be converted */
)
{
	clst -= 2;		/* Cluster number is origin from 2 */
  211930:	813fff84 	addi	r4,r16,-2
	if (clst >= fs->n_fatent - 2) return 0;		/* Is it invalid cluster number? */
  211934:	10bfff84 	addi	r2,r2,-2
  211938:	2080052e 	bgeu	r4,r2,211950 <dir_sdi.constprop.12+0xf4>
	return fs->database + (LBA_t)fs->csize * clst;	/* Start sector number of the cluster */
  21193c:	021a3580 	call	21a358 <__mulsi3>
  211940:	90c00b17 	ldw	r3,44(r18)
  211944:	10c5883a 	add	r2,r2,r3
			clst = get_fat(&dp->obj, clst);				/* Get next cluster */
			if (clst == 0xFFFFFFFF) return FR_DISK_ERR;	/* Disk error */
			if (clst < 2 || clst >= fs->n_fatent) return FR_INT_ERR;	/* Reached to end of table or internal error */
			ofs -= csz;
		}
		dp->sect = clst2sect(fs, clst);
  211948:	88800615 	stw	r2,24(r17)
  21194c:	003ff106 	br	211914 <dir_sdi.constprop.12+0xb8>
	FATFS* fs,		/* Filesystem object */
	DWORD clst		/* Cluster# to be converted */
)
{
	clst -= 2;		/* Cluster number is origin from 2 */
	if (clst >= fs->n_fatent - 2) return 0;		/* Is it invalid cluster number? */
  211950:	0005883a 	mov	r2,zero
			clst = get_fat(&dp->obj, clst);				/* Get next cluster */
			if (clst == 0xFFFFFFFF) return FR_DISK_ERR;	/* Disk error */
			if (clst < 2 || clst >= fs->n_fatent) return FR_INT_ERR;	/* Reached to end of table or internal error */
			ofs -= csz;
		}
		dp->sect = clst2sect(fs, clst);
  211954:	88800615 	stw	r2,24(r17)
  211958:	003fee06 	br	211914 <dir_sdi.constprop.12+0xb8>

0021195c <sync_fs>:
/*-----------------------------------------------------------------------*/

static FRESULT sync_fs (	/* Returns FR_OK or FR_DISK_ERR */
	FATFS* fs		/* Filesystem object */
)
{
  21195c:	defffc04 	addi	sp,sp,-16
  211960:	dc000015 	stw	r16,0(sp)
  211964:	dfc00315 	stw	ra,12(sp)
  211968:	dc800215 	stw	r18,8(sp)
  21196c:	dc400115 	stw	r17,4(sp)
)
{
	FRESULT res = FR_OK;


	if (fs->wflag) {	/* Is the disk access window dirty? */
  211970:	20800103 	ldbu	r2,4(r4)
/*-----------------------------------------------------------------------*/

static FRESULT sync_fs (	/* Returns FR_OK or FR_DISK_ERR */
	FATFS* fs		/* Filesystem object */
)
{
  211974:	2021883a 	mov	r16,r4
)
{
	FRESULT res = FR_OK;


	if (fs->wflag) {	/* Is the disk access window dirty? */
  211978:	10000e1e 	bne	r2,zero,2119b4 <sync_fs+0x58>
	FRESULT res;


	res = sync_window(fs);
	if (res == FR_OK) {
		if (fs->fsi_flag == 1) {	/* Allocation changed? */
  21197c:	84400143 	ldbu	r17,5(r16)
  211980:	00800044 	movi	r2,1
  211984:	88801326 	beq	r17,r2,2119d4 <sync_fs+0x78>
				}
			}
#endif
		}
		/* Make sure that no pending write process in the lower layer */
		if (disk_ioctl(fs->pdrv, CTRL_SYNC, 0) != RES_OK) res = FR_DISK_ERR;
  211988:	81000043 	ldbu	r4,1(r16)
  21198c:	000b883a 	mov	r5,zero
  211990:	000d883a 	mov	r6,zero
  211994:	0210cb00 	call	210cb0 <disk_ioctl>
  211998:	1004c03a 	cmpne	r2,r2,zero
	}

	return res;
}
  21199c:	dfc00317 	ldw	ra,12(sp)
  2119a0:	dc800217 	ldw	r18,8(sp)
  2119a4:	dc400117 	ldw	r17,4(sp)
  2119a8:	dc000017 	ldw	r16,0(sp)
  2119ac:	dec00404 	addi	sp,sp,16
  2119b0:	f800283a 	ret
  2119b4:	0210f300 	call	210f30 <sync_window.part.4>
{
	FRESULT res;


	res = sync_window(fs);
	if (res == FR_OK) {
  2119b8:	103ff026 	beq	r2,zero,21197c <sync_fs+0x20>
		/* Make sure that no pending write process in the lower layer */
		if (disk_ioctl(fs->pdrv, CTRL_SYNC, 0) != RES_OK) res = FR_DISK_ERR;
	}

	return res;
}
  2119bc:	dfc00317 	ldw	ra,12(sp)
  2119c0:	dc800217 	ldw	r18,8(sp)
  2119c4:	dc400117 	ldw	r17,4(sp)
  2119c8:	dc000017 	ldw	r16,0(sp)
  2119cc:	dec00404 	addi	sp,sp,16
  2119d0:	f800283a 	ret

	res = sync_window(fs);
	if (res == FR_OK) {
		if (fs->fsi_flag == 1) {	/* Allocation changed? */
			fs->fsi_flag = 0;
			if (fs->fs_type == FS_FAT32) {	/* FAT32: Update FSInfo sector */
  2119d4:	80c00003 	ldbu	r3,0(r16)


	res = sync_window(fs);
	if (res == FR_OK) {
		if (fs->fsi_flag == 1) {	/* Allocation changed? */
			fs->fsi_flag = 0;
  2119d8:	80000145 	stb	zero,5(r16)
			if (fs->fs_type == FS_FAT32) {	/* FAT32: Update FSInfo sector */
  2119dc:	008000c4 	movi	r2,3
  2119e0:	18bfe91e 	bne	r3,r2,211988 <sync_fs+0x2c>
				/* Create FSInfo structure */
				memset(fs->win, 0, sizeof fs->win);
  2119e4:	84800c04 	addi	r18,r16,48
  2119e8:	9009883a 	mov	r4,r18
  2119ec:	000b883a 	mov	r5,zero
  2119f0:	01808004 	movi	r6,512
  2119f4:	021a3f00 	call	21a3f0 <memset>
				st_32(fs->win + FSI_LeadSig, 0x41615252);		/* Leading signature */
				st_32(fs->win + FSI_StrucSig, 0x61417272);		/* Structure signature */
				st_32(fs->win + FSI_Free_Count, fs->free_clst);	/* Number of free clusters */
				st_32(fs->win + FSI_Nxt_Free, fs->last_clst);	/* Last allocated culuster */
  2119f8:	80800317 	ldw	r2,12(r16)
			if (fs->fs_type == FS_FAT32) {	/* FAT32: Update FSInfo sector */
				/* Create FSInfo structure */
				memset(fs->win, 0, sizeof fs->win);
				st_32(fs->win + FSI_LeadSig, 0x41615252);		/* Leading signature */
				st_32(fs->win + FSI_StrucSig, 0x61417272);		/* Structure signature */
				st_32(fs->win + FSI_Free_Count, fs->free_clst);	/* Number of free clusters */
  2119fc:	80c00417 	ldw	r3,16(r16)
				st_32(fs->win + FSI_Nxt_Free, fs->last_clst);	/* Last allocated culuster */
				st_32(fs->win + FSI_TrailSig, 0xAA550000);		/* Trailing signature */
				disk_write(fs->pdrv, fs->win, fs->winsect = fs->volbase + 1, 1);	/* Write it into the FSInfo sector (Next to VBR) */
  211a00:	81800817 	ldw	r6,32(r16)
	*ptr++ = (BYTE)val;
}

static void st_32 (BYTE* ptr, DWORD val)	/* Store a 4-byte word in little-endian */
{
	*ptr++ = (BYTE)val; val >>= 8;
  211a04:	1018d23a 	srli	r12,r2,8
	*ptr++ = (BYTE)val; val >>= 8;
  211a08:	1016d43a 	srli	r11,r2,16
	*ptr++ = (BYTE)val; val >>= 8;
  211a0c:	1014d63a 	srli	r10,r2,24
	*ptr++ = (BYTE)val;
}

static void st_32 (BYTE* ptr, DWORD val)	/* Store a 4-byte word in little-endian */
{
	*ptr++ = (BYTE)val; val >>= 8;
  211a10:	181ed23a 	srli	r15,r3,8
	*ptr++ = (BYTE)val; val >>= 8;
  211a14:	181cd43a 	srli	r14,r3,16
	*ptr++ = (BYTE)val; val >>= 8;
  211a18:	181ad63a 	srli	r13,r3,24
	*ptr++ = (BYTE)val;
}

static void st_32 (BYTE* ptr, DWORD val)	/* Store a 4-byte word in little-endian */
{
	*ptr++ = (BYTE)val; val >>= 8;
  211a1c:	80808705 	stb	r2,540(r16)
				st_32(fs->win + FSI_LeadSig, 0x41615252);		/* Leading signature */
				st_32(fs->win + FSI_StrucSig, 0x61417272);		/* Structure signature */
				st_32(fs->win + FSI_Free_Count, fs->free_clst);	/* Number of free clusters */
				st_32(fs->win + FSI_Nxt_Free, fs->last_clst);	/* Last allocated culuster */
				st_32(fs->win + FSI_TrailSig, 0xAA550000);		/* Trailing signature */
				disk_write(fs->pdrv, fs->win, fs->winsect = fs->volbase + 1, 1);	/* Write it into the FSInfo sector (Next to VBR) */
  211a20:	81000043 	ldbu	r4,1(r16)

static void st_32 (BYTE* ptr, DWORD val)	/* Store a 4-byte word in little-endian */
{
	*ptr++ = (BYTE)val; val >>= 8;
	*ptr++ = (BYTE)val; val >>= 8;
	*ptr++ = (BYTE)val; val >>= 8;
  211a24:	00801544 	movi	r2,85
	*ptr++ = (BYTE)val;
}

static void st_32 (BYTE* ptr, DWORD val)	/* Store a 4-byte word in little-endian */
{
	*ptr++ = (BYTE)val; val >>= 8;
  211a28:	02401484 	movi	r9,82
	*ptr++ = (BYTE)val; val >>= 8;
	*ptr++ = (BYTE)val; val >>= 8;
  211a2c:	01401844 	movi	r5,97
	*ptr++ = (BYTE)val;
  211a30:	01c01044 	movi	r7,65
	*ptr++ = (BYTE)val;
}

static void st_32 (BYTE* ptr, DWORD val)	/* Store a 4-byte word in little-endian */
{
	*ptr++ = (BYTE)val; val >>= 8;
  211a34:	02001c84 	movi	r8,114
				st_32(fs->win + FSI_LeadSig, 0x41615252);		/* Leading signature */
				st_32(fs->win + FSI_StrucSig, 0x61417272);		/* Structure signature */
				st_32(fs->win + FSI_Free_Count, fs->free_clst);	/* Number of free clusters */
				st_32(fs->win + FSI_Nxt_Free, fs->last_clst);	/* Last allocated culuster */
				st_32(fs->win + FSI_TrailSig, 0xAA550000);		/* Trailing signature */
				disk_write(fs->pdrv, fs->win, fs->winsect = fs->volbase + 1, 1);	/* Write it into the FSInfo sector (Next to VBR) */
  211a38:	31800044 	addi	r6,r6,1

static void st_32 (BYTE* ptr, DWORD val)	/* Store a 4-byte word in little-endian */
{
	*ptr++ = (BYTE)val; val >>= 8;
	*ptr++ = (BYTE)val; val >>= 8;
	*ptr++ = (BYTE)val; val >>= 8;
  211a3c:	80808b85 	stb	r2,558(r16)
	*ptr++ = (BYTE)val;
  211a40:	00bfea84 	movi	r2,-86

static void st_32 (BYTE* ptr, DWORD val)	/* Store a 4-byte word in little-endian */
{
	*ptr++ = (BYTE)val; val >>= 8;
	*ptr++ = (BYTE)val; val >>= 8;
	*ptr++ = (BYTE)val; val >>= 8;
  211a44:	81400c85 	stb	r5,50(r16)
	*ptr++ = (BYTE)val;
  211a48:	81c00cc5 	stb	r7,51(r16)

static void st_32 (BYTE* ptr, DWORD val)	/* Store a 4-byte word in little-endian */
{
	*ptr++ = (BYTE)val; val >>= 8;
	*ptr++ = (BYTE)val; val >>= 8;
	*ptr++ = (BYTE)val; val >>= 8;
  211a4c:	81c08585 	stb	r7,534(r16)
	*ptr++ = (BYTE)val;
  211a50:	814085c5 	stb	r5,535(r16)
	*ptr++ = (BYTE)val;
}

static void st_32 (BYTE* ptr, DWORD val)	/* Store a 4-byte word in little-endian */
{
	*ptr++ = (BYTE)val; val >>= 8;
  211a54:	82400c05 	stb	r9,48(r16)
	*ptr++ = (BYTE)val; val >>= 8;
  211a58:	82400c45 	stb	r9,49(r16)
	*ptr++ = (BYTE)val;
}

static void st_32 (BYTE* ptr, DWORD val)	/* Store a 4-byte word in little-endian */
{
	*ptr++ = (BYTE)val; val >>= 8;
  211a5c:	82008505 	stb	r8,532(r16)
	*ptr++ = (BYTE)val; val >>= 8;
  211a60:	82008545 	stb	r8,533(r16)
	*ptr++ = (BYTE)val;
}

static void st_32 (BYTE* ptr, DWORD val)	/* Store a 4-byte word in little-endian */
{
	*ptr++ = (BYTE)val; val >>= 8;
  211a64:	80c08605 	stb	r3,536(r16)
	*ptr++ = (BYTE)val; val >>= 8;
  211a68:	83c08645 	stb	r15,537(r16)
	*ptr++ = (BYTE)val; val >>= 8;
  211a6c:	83808685 	stb	r14,538(r16)
	*ptr++ = (BYTE)val;
  211a70:	834086c5 	stb	r13,539(r16)
}

static void st_32 (BYTE* ptr, DWORD val)	/* Store a 4-byte word in little-endian */
{
	*ptr++ = (BYTE)val; val >>= 8;
	*ptr++ = (BYTE)val; val >>= 8;
  211a74:	83008745 	stb	r12,541(r16)
	*ptr++ = (BYTE)val; val >>= 8;
  211a78:	82c08785 	stb	r11,542(r16)
	*ptr++ = (BYTE)val;
  211a7c:	828087c5 	stb	r10,543(r16)
	*ptr++ = (BYTE)val;
}

static void st_32 (BYTE* ptr, DWORD val)	/* Store a 4-byte word in little-endian */
{
	*ptr++ = (BYTE)val; val >>= 8;
  211a80:	80008b05 	stb	zero,556(r16)
	*ptr++ = (BYTE)val; val >>= 8;
  211a84:	80008b45 	stb	zero,557(r16)
	*ptr++ = (BYTE)val; val >>= 8;
	*ptr++ = (BYTE)val;
  211a88:	80808bc5 	stb	r2,559(r16)
				st_32(fs->win + FSI_LeadSig, 0x41615252);		/* Leading signature */
				st_32(fs->win + FSI_StrucSig, 0x61417272);		/* Structure signature */
				st_32(fs->win + FSI_Free_Count, fs->free_clst);	/* Number of free clusters */
				st_32(fs->win + FSI_Nxt_Free, fs->last_clst);	/* Last allocated culuster */
				st_32(fs->win + FSI_TrailSig, 0xAA550000);		/* Trailing signature */
				disk_write(fs->pdrv, fs->win, fs->winsect = fs->volbase + 1, 1);	/* Write it into the FSInfo sector (Next to VBR) */
  211a8c:	81800715 	stw	r6,28(r16)
  211a90:	900b883a 	mov	r5,r18
  211a94:	880f883a 	mov	r7,r17
  211a98:	0210a640 	call	210a64 <disk_write>
  211a9c:	003fba06 	br	211988 <sync_fs+0x2c>

00211aa0 <dir_clear>:
#if !FF_FS_READONLY
static FRESULT dir_clear (	/* Returns FR_OK or FR_DISK_ERR */
	FATFS *fs,		/* Filesystem object */
	DWORD clst		/* Directory table to clear */
)
{
  211aa0:	defffa04 	addi	sp,sp,-24
  211aa4:	dc400215 	stw	r17,8(sp)
  211aa8:	dfc00515 	stw	ra,20(sp)
  211aac:	dcc00415 	stw	r19,16(sp)
  211ab0:	dc800315 	stw	r18,12(sp)
  211ab4:	dc000115 	stw	r16,4(sp)
)
{
	FRESULT res = FR_OK;


	if (fs->wflag) {	/* Is the disk access window dirty? */
  211ab8:	20800103 	ldbu	r2,4(r4)
#if !FF_FS_READONLY
static FRESULT dir_clear (	/* Returns FR_OK or FR_DISK_ERR */
	FATFS *fs,		/* Filesystem object */
	DWORD clst		/* Directory table to clear */
)
{
  211abc:	2023883a 	mov	r17,r4
)
{
	FRESULT res = FR_OK;


	if (fs->wflag) {	/* Is the disk access window dirty? */
  211ac0:	1000261e 	bne	r2,zero,211b5c <dir_clear+0xbc>
	FATFS* fs,		/* Filesystem object */
	DWORD clst		/* Cluster# to be converted */
)
{
	clst -= 2;		/* Cluster number is origin from 2 */
	if (clst >= fs->n_fatent - 2) return 0;		/* Is it invalid cluster number? */
  211ac4:	88800517 	ldw	r2,20(r17)
static LBA_t clst2sect (	/* !=0:Sector number, 0:Failed (invalid cluster#) */
	FATFS* fs,		/* Filesystem object */
	DWORD clst		/* Cluster# to be converted */
)
{
	clst -= 2;		/* Cluster number is origin from 2 */
  211ac8:	293fff84 	addi	r4,r5,-2
	if (clst >= fs->n_fatent - 2) return 0;		/* Is it invalid cluster number? */
  211acc:	10bfff84 	addi	r2,r2,-2
  211ad0:	2080202e 	bgeu	r4,r2,211b54 <dir_clear+0xb4>
	return fs->database + (LBA_t)fs->csize * clst;	/* Start sector number of the cluster */
  211ad4:	8940028b 	ldhu	r5,10(r17)
  211ad8:	021a3580 	call	21a358 <__mulsi3>
  211adc:	8cc00b17 	ldw	r19,44(r17)
  211ae0:	14e7883a 	add	r19,r2,r19


	if (sync_window(fs) != FR_OK) return FR_DISK_ERR;	/* Flush disk access window */
	sect = clst2sect(fs, clst);		/* Top of the cluster */
	fs->winsect = sect;				/* Set window to top of the cluster */
	memset(fs->win, 0, sizeof fs->win);	/* Clear window buffer */
  211ae4:	8c800c04 	addi	r18,r17,48
	BYTE *ibuf;


	if (sync_window(fs) != FR_OK) return FR_DISK_ERR;	/* Flush disk access window */
	sect = clst2sect(fs, clst);		/* Top of the cluster */
	fs->winsect = sect;				/* Set window to top of the cluster */
  211ae8:	8cc00715 	stw	r19,28(r17)
	memset(fs->win, 0, sizeof fs->win);	/* Clear window buffer */
  211aec:	9009883a 	mov	r4,r18
  211af0:	000b883a 	mov	r5,zero
  211af4:	01808004 	movi	r6,512
  211af8:	021a3f00 	call	21a3f0 <memset>
		ff_memfree(ibuf);
	} else
#endif
	{
		ibuf = fs->win; szb = 1;	/* Use window buffer (many single-sector writes may take a time) */
		for (n = 0; n < fs->csize && disk_write(fs->pdrv, ibuf, sect + n, szb) == RES_OK; n += szb) ;	/* Fill the cluster with 0 */
  211afc:	8880028b 	ldhu	r2,10(r17)
  211b00:	0021883a 	mov	r16,zero
  211b04:	1000041e 	bne	r2,zero,211b18 <dir_clear+0x78>
  211b08:	00000a06 	br	211b34 <dir_clear+0x94>
  211b0c:	8880028b 	ldhu	r2,10(r17)
  211b10:	84000044 	addi	r16,r16,1
  211b14:	8080072e 	bgeu	r16,r2,211b34 <dir_clear+0x94>
  211b18:	89000043 	ldbu	r4,1(r17)
  211b1c:	84cd883a 	add	r6,r16,r19
  211b20:	900b883a 	mov	r5,r18
  211b24:	01c00044 	movi	r7,1
  211b28:	0210a640 	call	210a64 <disk_write>
  211b2c:	103ff726 	beq	r2,zero,211b0c <dir_clear+0x6c>
  211b30:	8880028b 	ldhu	r2,10(r17)
	}
	return (n == fs->csize) ? FR_OK : FR_DISK_ERR;
  211b34:	8084c03a 	cmpne	r2,r16,r2
}
  211b38:	dfc00517 	ldw	ra,20(sp)
  211b3c:	dcc00417 	ldw	r19,16(sp)
  211b40:	dc800317 	ldw	r18,12(sp)
  211b44:	dc400217 	ldw	r17,8(sp)
  211b48:	dc000117 	ldw	r16,4(sp)
  211b4c:	dec00604 	addi	sp,sp,24
  211b50:	f800283a 	ret
	FATFS* fs,		/* Filesystem object */
	DWORD clst		/* Cluster# to be converted */
)
{
	clst -= 2;		/* Cluster number is origin from 2 */
	if (clst >= fs->n_fatent - 2) return 0;		/* Is it invalid cluster number? */
  211b54:	0027883a 	mov	r19,zero
  211b58:	003fe206 	br	211ae4 <dir_clear+0x44>
  211b5c:	d9400015 	stw	r5,0(sp)
  211b60:	0210f300 	call	210f30 <sync_window.part.4>
	LBA_t sect;
	UINT n, szb;
	BYTE *ibuf;


	if (sync_window(fs) != FR_OK) return FR_DISK_ERR;	/* Flush disk access window */
  211b64:	d9400017 	ldw	r5,0(sp)
  211b68:	103fd626 	beq	r2,zero,211ac4 <dir_clear+0x24>
  211b6c:	00800044 	movi	r2,1
	{
		ibuf = fs->win; szb = 1;	/* Use window buffer (many single-sector writes may take a time) */
		for (n = 0; n < fs->csize && disk_write(fs->pdrv, ibuf, sect + n, szb) == RES_OK; n += szb) ;	/* Fill the cluster with 0 */
	}
	return (n == fs->csize) ? FR_OK : FR_DISK_ERR;
}
  211b70:	dfc00517 	ldw	ra,20(sp)
  211b74:	dcc00417 	ldw	r19,16(sp)
  211b78:	dc800317 	ldw	r18,12(sp)
  211b7c:	dc400217 	ldw	r17,8(sp)
  211b80:	dc000117 	ldw	r16,4(sp)
  211b84:	dec00604 	addi	sp,sp,24
  211b88:	f800283a 	ret

00211b8c <dir_next>:

static FRESULT dir_next (	/* FR_OK(0):succeeded, FR_NO_FILE:End of table, FR_DENIED:Could not stretch */
	DIR* dp,				/* Pointer to the directory object */
	int stretch				/* 0: Do not stretch table, 1: Stretch table if needed */
)
{
  211b8c:	defff904 	addi	sp,sp,-28
  211b90:	dc400115 	stw	r17,4(sp)
	DWORD ofs, clst;
	FATFS *fs = dp->obj.fs;


	ofs = dp->dptr + SZDIRE;	/* Next entry */
  211b94:	24400417 	ldw	r17,16(r4)

static FRESULT dir_next (	/* FR_OK(0):succeeded, FR_NO_FILE:End of table, FR_DENIED:Could not stretch */
	DIR* dp,				/* Pointer to the directory object */
	int stretch				/* 0: Do not stretch table, 1: Stretch table if needed */
)
{
  211b98:	dcc00315 	stw	r19,12(sp)
  211b9c:	dc800215 	stw	r18,8(sp)
  211ba0:	dc000015 	stw	r16,0(sp)
  211ba4:	dfc00615 	stw	ra,24(sp)
  211ba8:	dd400515 	stw	r21,20(sp)
  211bac:	dd000415 	stw	r20,16(sp)
	DWORD ofs, clst;
	FATFS *fs = dp->obj.fs;


	ofs = dp->dptr + SZDIRE;	/* Next entry */
  211bb0:	8c400804 	addi	r17,r17,32
	if (ofs >= (DWORD)((FF_FS_EXFAT && fs->fs_type == FS_EXFAT) ? MAX_DIR_EX : MAX_DIR)) dp->sect = 0;	/* Disable it if the offset reached the max value */
  211bb4:	00800834 	movhi	r2,32
  211bb8:	10bfffc4 	addi	r2,r2,-1

static FRESULT dir_next (	/* FR_OK(0):succeeded, FR_NO_FILE:End of table, FR_DENIED:Could not stretch */
	DIR* dp,				/* Pointer to the directory object */
	int stretch				/* 0: Do not stretch table, 1: Stretch table if needed */
)
{
  211bbc:	2021883a 	mov	r16,r4
  211bc0:	2827883a 	mov	r19,r5
	DWORD ofs, clst;
	FATFS *fs = dp->obj.fs;
  211bc4:	24800017 	ldw	r18,0(r4)


	ofs = dp->dptr + SZDIRE;	/* Next entry */
	if (ofs >= (DWORD)((FF_FS_EXFAT && fs->fs_type == FS_EXFAT) ? MAX_DIR_EX : MAX_DIR)) dp->sect = 0;	/* Disable it if the offset reached the max value */
  211bc8:	14400b36 	bltu	r2,r17,211bf8 <dir_next+0x6c>
	if (dp->sect == 0) return FR_NO_FILE;	/* Report EOT if it has been disabled */
  211bcc:	20800617 	ldw	r2,24(r4)
  211bd0:	10002c26 	beq	r2,zero,211c84 <dir_next+0xf8>

	if (ofs % SS(fs) == 0) {	/* Sector changed? */
  211bd4:	8d007fcc 	andi	r20,r17,511
  211bd8:	a000241e 	bne	r20,zero,211c6c <dir_next+0xe0>
		dp->sect++;				/* Next sector */

		if (dp->clust == 0) {	/* Static table */
  211bdc:	21400517 	ldw	r5,20(r4)
	ofs = dp->dptr + SZDIRE;	/* Next entry */
	if (ofs >= (DWORD)((FF_FS_EXFAT && fs->fs_type == FS_EXFAT) ? MAX_DIR_EX : MAX_DIR)) dp->sect = 0;	/* Disable it if the offset reached the max value */
	if (dp->sect == 0) return FR_NO_FILE;	/* Report EOT if it has been disabled */

	if (ofs % SS(fs) == 0) {	/* Sector changed? */
		dp->sect++;				/* Next sector */
  211be0:	10800044 	addi	r2,r2,1
  211be4:	20800615 	stw	r2,24(r4)

		if (dp->clust == 0) {	/* Static table */
  211be8:	2800281e 	bne	r5,zero,211c8c <dir_next+0x100>
			if (ofs / SZDIRE >= fs->n_rootdir) {	/* Report EOT if it reached end of static table */
  211bec:	8806d17a 	srli	r3,r17,5
  211bf0:	9080020b 	ldhu	r2,8(r18)
  211bf4:	18801d36 	bltu	r3,r2,211c6c <dir_next+0xe0>
				if (clst <= 1) return FR_INT_ERR;			/* Internal error */
				if (clst == 0xFFFFFFFF) return FR_DISK_ERR;	/* Disk error */
				if (clst >= fs->n_fatent) {					/* It reached end of dynamic table */
#if !FF_FS_READONLY
					if (!stretch) {								/* If no stretch, report EOT */
						dp->sect = 0; return FR_NO_FILE;
  211bf8:	80000615 	stw	zero,24(r16)
  211bfc:	00800104 	movi	r2,4
	}
	dp->dptr = ofs;						/* Current entry */
	dp->dir = fs->win + ofs % SS(fs);	/* Pointer to the entry in the win[] */

	return FR_OK;
}
  211c00:	dfc00617 	ldw	ra,24(sp)
  211c04:	dd400517 	ldw	r21,20(sp)
  211c08:	dd000417 	ldw	r20,16(sp)
  211c0c:	dcc00317 	ldw	r19,12(sp)
  211c10:	dc800217 	ldw	r18,8(sp)
  211c14:	dc400117 	ldw	r17,4(sp)
  211c18:	dc000017 	ldw	r16,0(sp)
  211c1c:	dec00704 	addi	sp,sp,28
  211c20:	f800283a 	ret
					if (!stretch) {								/* If no stretch, report EOT */
						dp->sect = 0; return FR_NO_FILE;
					}
					clst = create_chain(&dp->obj, dp->clust);	/* Allocate a cluster */
					if (clst == 0) return FR_DENIED;			/* No free cluster */
					if (clst == 1) return FR_INT_ERR;			/* Internal error */
  211c24:	00800044 	movi	r2,1
  211c28:	a8802d26 	beq	r21,r2,211ce0 <dir_next+0x154>
					if (clst == 0xFFFFFFFF) return FR_DISK_ERR;	/* Disk error */
  211c2c:	00bfffc4 	movi	r2,-1
  211c30:	a8803026 	beq	r21,r2,211cf4 <dir_next+0x168>
					if (dir_clear(fs, clst) != FR_OK) return FR_DISK_ERR;	/* Clean up the stretched table */
  211c34:	9009883a 	mov	r4,r18
  211c38:	a80b883a 	mov	r5,r21
  211c3c:	0211aa00 	call	211aa0 <dir_clear>
  211c40:	10002c1e 	bne	r2,zero,211cf4 <dir_next+0x168>
  211c44:	90800517 	ldw	r2,20(r18)
#else
					if (!stretch) dp->sect = 0;					/* (this line is to suppress compiler warning) */
					dp->sect = 0; return FR_NO_FILE;			/* Report EOT */
#endif
				}
				dp->clust = clst;		/* Initialize data for new cluster */
  211c48:	85400515 	stw	r21,20(r16)
static LBA_t clst2sect (	/* !=0:Sector number, 0:Failed (invalid cluster#) */
	FATFS* fs,		/* Filesystem object */
	DWORD clst		/* Cluster# to be converted */
)
{
	clst -= 2;		/* Cluster number is origin from 2 */
  211c4c:	a93fff84 	addi	r4,r21,-2
	if (clst >= fs->n_fatent - 2) return 0;		/* Is it invalid cluster number? */
  211c50:	10bfff84 	addi	r2,r2,-2
  211c54:	2080242e 	bgeu	r4,r2,211ce8 <dir_next+0x15c>
	return fs->database + (LBA_t)fs->csize * clst;	/* Start sector number of the cluster */
  211c58:	9140028b 	ldhu	r5,10(r18)
  211c5c:	021a3580 	call	21a358 <__mulsi3>
  211c60:	90c00b17 	ldw	r3,44(r18)
  211c64:	10c5883a 	add	r2,r2,r3
					if (!stretch) dp->sect = 0;					/* (this line is to suppress compiler warning) */
					dp->sect = 0; return FR_NO_FILE;			/* Report EOT */
#endif
				}
				dp->clust = clst;		/* Initialize data for new cluster */
				dp->sect = clst2sect(fs, clst);
  211c68:	80800615 	stw	r2,24(r16)
			}
		}
	}
	dp->dptr = ofs;						/* Current entry */
	dp->dir = fs->win + ofs % SS(fs);	/* Pointer to the entry in the win[] */
  211c6c:	a5000c04 	addi	r20,r20,48
  211c70:	9525883a 	add	r18,r18,r20
				dp->clust = clst;		/* Initialize data for new cluster */
				dp->sect = clst2sect(fs, clst);
			}
		}
	}
	dp->dptr = ofs;						/* Current entry */
  211c74:	84400415 	stw	r17,16(r16)
	dp->dir = fs->win + ofs % SS(fs);	/* Pointer to the entry in the win[] */
  211c78:	84800715 	stw	r18,28(r16)

	return FR_OK;
  211c7c:	0005883a 	mov	r2,zero
  211c80:	003fdf06 	br	211c00 <dir_next+0x74>
	FATFS *fs = dp->obj.fs;


	ofs = dp->dptr + SZDIRE;	/* Next entry */
	if (ofs >= (DWORD)((FF_FS_EXFAT && fs->fs_type == FS_EXFAT) ? MAX_DIR_EX : MAX_DIR)) dp->sect = 0;	/* Disable it if the offset reached the max value */
	if (dp->sect == 0) return FR_NO_FILE;	/* Report EOT if it has been disabled */
  211c84:	00800104 	movi	r2,4
  211c88:	003fdd06 	br	211c00 <dir_next+0x74>
			if (ofs / SZDIRE >= fs->n_rootdir) {	/* Report EOT if it reached end of static table */
				dp->sect = 0; return FR_NO_FILE;
			}
		}
		else {					/* Dynamic table */
			if ((ofs / SS(fs) & (fs->csize - 1)) == 0) {	/* Cluster changed? */
  211c8c:	90c0028b 	ldhu	r3,10(r18)
  211c90:	8804d27a 	srli	r2,r17,9
  211c94:	18ffffc4 	addi	r3,r3,-1
  211c98:	1884703a 	and	r2,r3,r2
  211c9c:	103ff31e 	bne	r2,zero,211c6c <dir_next+0xe0>
				clst = get_fat(&dp->obj, dp->clust);		/* Get next cluster */
  211ca0:	02110700 	call	211070 <get_fat>
  211ca4:	102b883a 	mov	r21,r2
				if (clst <= 1) return FR_INT_ERR;			/* Internal error */
  211ca8:	00800044 	movi	r2,1
  211cac:	15400c2e 	bgeu	r2,r21,211ce0 <dir_next+0x154>
				if (clst == 0xFFFFFFFF) return FR_DISK_ERR;	/* Disk error */
  211cb0:	00bfffc4 	movi	r2,-1
  211cb4:	a8800f26 	beq	r21,r2,211cf4 <dir_next+0x168>
				if (clst >= fs->n_fatent) {					/* It reached end of dynamic table */
  211cb8:	90800517 	ldw	r2,20(r18)
  211cbc:	a8bfe236 	bltu	r21,r2,211c48 <dir_next+0xbc>
#if !FF_FS_READONLY
					if (!stretch) {								/* If no stretch, report EOT */
  211cc0:	983fcd26 	beq	r19,zero,211bf8 <dir_next+0x6c>
						dp->sect = 0; return FR_NO_FILE;
					}
					clst = create_chain(&dp->obj, dp->clust);	/* Allocate a cluster */
  211cc4:	81400517 	ldw	r5,20(r16)
  211cc8:	8009883a 	mov	r4,r16
  211ccc:	021157c0 	call	21157c <create_chain>
  211cd0:	102b883a 	mov	r21,r2
					if (clst == 0) return FR_DENIED;			/* No free cluster */
  211cd4:	103fd31e 	bne	r2,zero,211c24 <dir_next+0x98>
  211cd8:	008001c4 	movi	r2,7
  211cdc:	003fc806 	br	211c00 <dir_next+0x74>
			}
		}
		else {					/* Dynamic table */
			if ((ofs / SS(fs) & (fs->csize - 1)) == 0) {	/* Cluster changed? */
				clst = get_fat(&dp->obj, dp->clust);		/* Get next cluster */
				if (clst <= 1) return FR_INT_ERR;			/* Internal error */
  211ce0:	00800084 	movi	r2,2
  211ce4:	003fc606 	br	211c00 <dir_next+0x74>
	FATFS* fs,		/* Filesystem object */
	DWORD clst		/* Cluster# to be converted */
)
{
	clst -= 2;		/* Cluster number is origin from 2 */
	if (clst >= fs->n_fatent - 2) return 0;		/* Is it invalid cluster number? */
  211ce8:	0005883a 	mov	r2,zero
					if (!stretch) dp->sect = 0;					/* (this line is to suppress compiler warning) */
					dp->sect = 0; return FR_NO_FILE;			/* Report EOT */
#endif
				}
				dp->clust = clst;		/* Initialize data for new cluster */
				dp->sect = clst2sect(fs, clst);
  211cec:	80800615 	stw	r2,24(r16)
  211cf0:	003fde06 	br	211c6c <dir_next+0xe0>
		}
		else {					/* Dynamic table */
			if ((ofs / SS(fs) & (fs->csize - 1)) == 0) {	/* Cluster changed? */
				clst = get_fat(&dp->obj, dp->clust);		/* Get next cluster */
				if (clst <= 1) return FR_INT_ERR;			/* Internal error */
				if (clst == 0xFFFFFFFF) return FR_DISK_ERR;	/* Disk error */
  211cf4:	00800044 	movi	r2,1
  211cf8:	003fc106 	br	211c00 <dir_next+0x74>

00211cfc <follow_path>:

static FRESULT follow_path (	/* FR_OK(0): successful, !=0: error code */
	DIR* dp,					/* Directory object to return last directory and found object */
	const TCHAR* path			/* Full-path string to find a file or directory */
)
{
  211cfc:	deffea04 	addi	sp,sp,-88
  211d00:	dcc00f15 	stw	r19,60(sp)
  211d04:	dc000c15 	stw	r16,48(sp)
  211d08:	2827883a 	mov	r19,r5
  211d0c:	2021883a 	mov	r16,r4
	FRESULT res;
	BYTE ns;
	FATFS *fs = dp->obj.fs;
  211d10:	21400017 	ldw	r5,0(r4)

static FRESULT follow_path (	/* FR_OK(0): successful, !=0: error code */
	DIR* dp,					/* Directory object to return last directory and found object */
	const TCHAR* path			/* Full-path string to find a file or directory */
)
{
  211d14:	dfc01515 	stw	ra,84(sp)
  211d18:	df001415 	stw	fp,80(sp)
  211d1c:	ddc01315 	stw	r23,76(sp)
  211d20:	dd801215 	stw	r22,72(sp)
  211d24:	dd401115 	stw	r21,68(sp)
  211d28:	dd001015 	stw	r20,64(sp)
  211d2c:	dc800e15 	stw	r18,56(sp)
  211d30:	dc400d15 	stw	r17,52(sp)
	if (!IsSeparator(*path) && (FF_STR_VOLUME_ID != 2 || !IsTerminator(*path))) {	/* Without heading separator */
		dp->obj.sclust = fs->cdir;			/* Start at the current directory */
	} else
#endif
	{										/* With heading separator */
		while (IsSeparator(*path)) path++;	/* Strip heading separators */
  211d34:	00c00bc4 	movi	r3,47
  211d38:	01001704 	movi	r4,92
  211d3c:	98800007 	ldb	r2,0(r19)
  211d40:	10c00126 	beq	r2,r3,211d48 <follow_path+0x4c>
  211d44:	1100021e 	bne	r2,r4,211d50 <follow_path+0x54>

/*-----------------------------------------------------------------------*/
/* Follow a file path                                                    */
/*-----------------------------------------------------------------------*/

static FRESULT follow_path (	/* FR_OK(0): successful, !=0: error code */
  211d48:	9cc00044 	addi	r19,r19,1
  211d4c:	003ffb06 	br	211d3c <follow_path+0x40>
		dp->obj.sclust = fs->cdir;			/* Start at the current directory */
	} else
#endif
	{										/* With heading separator */
		while (IsSeparator(*path)) path++;	/* Strip heading separators */
		dp->obj.sclust = 0;					/* Start at the root directory */
  211d50:	80000215 	stw	zero,8(r16)
		}
	}
#endif
#endif

	if ((UINT)*path < ' ') {				/* Null path name is the origin directory itself */
  211d54:	98800003 	ldbu	r2,0(r19)
  211d58:	00c007c4 	movi	r3,31
  211d5c:	1880c52e 	bgeu	r3,r2,212074 <follow_path+0x378>
  211d60:	84400804 	addi	r17,r16,32
	UINT ni, si, i;
	const char *p;

	/* Create file name in directory form */
	p = *path; sfn = dp->fn;
	memset(sfn, ' ', 11);
  211d64:	04800804 	movi	r18,32
	}
#endif
	for (;;) {
		c = (BYTE)p[si++];				/* Get a byte */
		if (c <= ' ') break; 			/* Break if end of the path name */
		if (IsSeparator(c)) {			/* Break if a separator is found */
  211d68:	05800bc4 	movi	r22,47
  211d6c:	2839883a 	mov	fp,r5
	UINT ni, si, i;
	const char *p;

	/* Create file name in directory form */
	p = *path; sfn = dp->fn;
	memset(sfn, ' ', 11);
  211d70:	8c800005 	stb	r18,0(r17)
  211d74:	8c800045 	stb	r18,1(r17)
  211d78:	8c800085 	stb	r18,2(r17)
  211d7c:	8c8000c5 	stb	r18,3(r17)
  211d80:	8c800105 	stb	r18,4(r17)
  211d84:	8c800145 	stb	r18,5(r17)
  211d88:	8c800185 	stb	r18,6(r17)
  211d8c:	8c8001c5 	stb	r18,7(r17)
  211d90:	8c800205 	stb	r18,8(r17)
  211d94:	8c800245 	stb	r18,9(r17)
  211d98:	8c800285 	stb	r18,10(r17)
	si = i = 0; ni = 8;
  211d9c:	002b883a 	mov	r21,zero
  211da0:	0005883a 	mov	r2,zero
  211da4:	01c00204 	movi	r7,8
	}
#endif
	for (;;) {
		c = (BYTE)p[si++];				/* Get a byte */
		if (c <= ' ') break; 			/* Break if end of the path name */
		if (IsSeparator(c)) {			/* Break if a separator is found */
  211da8:	05c01704 	movi	r23,92
			while (IsSeparator(p[si])) si++;	/* Skip duplicated separators */
			break;
		}
		if (c == '.' || i >= ni) {		/* End of body or field overflow? */
  211dac:	00c00b84 	movi	r3,46
	if (DbcTbl && c >= DbcTbl[0]) {
		if (c <= DbcTbl[1]) return 1;					/* 1st byte range 1 */
		if (c >= DbcTbl[2] && c <= DbcTbl[3]) return 1;	/* 1st byte range 2 */
	}
#elif FF_CODE_PAGE >= 900	/* DBCS fixed code page */
	if (c >= DbcTbl[0]) {
  211db0:	02002004 	movi	r8,128
			if (!dbc_2nd(d) || i >= ni - 1) return FR_INVALID_NAME;	/* Reject invalid DBC */
			sfn[i++] = c;
			sfn[i++] = d;
		} else {						/* SBC */
			if (strchr("*+,:;<=>[]|\"\?\x7F", (int)c)) return FR_INVALID_NAME;	/* Reject illegal chrs for SFN */
			if (IsLower(c)) c -= 0x20;	/* To upper */
  211db4:	02800644 	movi	r10,25
		if (c <= DbcTbl[1]) return 1;					/* 1st byte range 1 */
		if (c >= DbcTbl[2] && c <= DbcTbl[3]) return 1;	/* 1st byte range 2 */
	}
#elif FF_CODE_PAGE >= 900	/* DBCS fixed code page */
	if (c >= DbcTbl[0]) {
		if (c <= DbcTbl[1]) return 1;
  211db8:	024027c4 	movi	r9,159
		if (c <= DbcTbl[5]) return 1;					/* 2nd byte range 1 */
		if (c >= DbcTbl[6] && c <= DbcTbl[7]) return 1;	/* 2nd byte range 2 */
		if (c >= DbcTbl[8] && c <= DbcTbl[9]) return 1;	/* 2nd byte range 3 */
	}
#elif FF_CODE_PAGE >= 900	/* DBCS fixed code page */
	if (c >= DbcTbl[4]) {
  211dbc:	02c00fc4 	movi	r11,63
		if (c <= DbcTbl[5]) return 1;
  211dc0:	03401f84 	movi	r13,126
		if (c >= DbcTbl[6] && c <= DbcTbl[7]) return 1;
  211dc4:	03c01fc4 	movi	r15,127
  211dc8:	03803f04 	movi	r14,252
		if (c >= DbcTbl[2] && c <= DbcTbl[3]) return 1;	/* 1st byte range 2 */
	}
#elif FF_CODE_PAGE >= 900	/* DBCS fixed code page */
	if (c >= DbcTbl[0]) {
		if (c <= DbcTbl[1]) return 1;
		if (c >= DbcTbl[2] && c <= DbcTbl[3]) return 1;
  211dcc:	030037c4 	movi	r12,223
		sfn[NSFLAG] = (c <= ' ') ? NS_LAST | NS_DOT : NS_DOT;	/* Set last segment flag if end of the path */
		return FR_OK;
	}
#endif
	for (;;) {
		c = (BYTE)p[si++];				/* Get a byte */
  211dd0:	9889883a 	add	r4,r19,r2
  211dd4:	25000003 	ldbu	r20,0(r4)
		if (c <= ' ') break; 			/* Break if end of the path name */
  211dd8:	01000804 	movi	r4,32
		sfn[NSFLAG] = (c <= ' ') ? NS_LAST | NS_DOT : NS_DOT;	/* Set last segment flag if end of the path */
		return FR_OK;
	}
#endif
	for (;;) {
		c = (BYTE)p[si++];				/* Get a byte */
  211ddc:	11800044 	addi	r6,r2,1
		if (c <= ' ') break; 			/* Break if end of the path name */
  211de0:	a1403fcc 	andi	r5,r20,255
  211de4:	2140302e 	bgeu	r4,r5,211ea8 <follow_path+0x1ac>
		if (IsSeparator(c)) {			/* Break if a separator is found */
  211de8:	2d804e26 	beq	r5,r22,211f24 <follow_path+0x228>
  211dec:	2dc04d26 	beq	r5,r23,211f24 <follow_path+0x228>
			while (IsSeparator(p[si])) si++;	/* Skip duplicated separators */
			break;
		}
		if (c == '.' || i >= ni) {		/* End of body or field overflow? */
  211df0:	28c0bb26 	beq	r5,r3,2120e0 <follow_path+0x3e4>
  211df4:	a9c02e2e 	bgeu	r21,r7,211eb0 <follow_path+0x1b4>
	if (DbcTbl && c >= DbcTbl[0]) {
		if (c <= DbcTbl[1]) return 1;					/* 1st byte range 1 */
		if (c >= DbcTbl[2] && c <= DbcTbl[3]) return 1;	/* 1st byte range 2 */
	}
#elif FF_CODE_PAGE >= 900	/* DBCS fixed code page */
	if (c >= DbcTbl[0]) {
  211df8:	4140032e 	bgeu	r8,r5,211e08 <follow_path+0x10c>
		if (c <= DbcTbl[1]) return 1;
  211dfc:	49403a2e 	bgeu	r9,r5,211ee8 <follow_path+0x1ec>
		if (c >= DbcTbl[2] && c <= DbcTbl[3]) return 1;
  211e00:	6140012e 	bgeu	r12,r5,211e08 <follow_path+0x10c>
  211e04:	7140382e 	bgeu	r14,r5,211ee8 <follow_path+0x1ec>
			d = (BYTE)p[si++];			/* Get 2nd byte */
			if (!dbc_2nd(d) || i >= ni - 1) return FR_INVALID_NAME;	/* Reject invalid DBC */
			sfn[i++] = c;
			sfn[i++] = d;
		} else {						/* SBC */
			if (strchr("*+,:;<=>[]|\"\?\x7F", (int)c)) return FR_INVALID_NAME;	/* Reject illegal chrs for SFN */
  211e08:	010008b4 	movhi	r4,34
  211e0c:	212dae04 	addi	r4,r4,-18760
  211e10:	d8c00115 	stw	r3,4(sp)
  211e14:	d9800b15 	stw	r6,44(sp)
  211e18:	d9c00a15 	stw	r7,40(sp)
  211e1c:	da000215 	stw	r8,8(sp)
  211e20:	da400415 	stw	r9,16(sp)
  211e24:	da800315 	stw	r10,12(sp)
  211e28:	dac00515 	stw	r11,20(sp)
  211e2c:	db000915 	stw	r12,36(sp)
  211e30:	db400615 	stw	r13,24(sp)
  211e34:	db800815 	stw	r14,32(sp)
  211e38:	dbc00715 	stw	r15,28(sp)
  211e3c:	021a4f40 	call	21a4f4 <strchr>
  211e40:	d8c00117 	ldw	r3,4(sp)
  211e44:	d9800b17 	ldw	r6,44(sp)
  211e48:	d9c00a17 	ldw	r7,40(sp)
  211e4c:	da000217 	ldw	r8,8(sp)
  211e50:	da400417 	ldw	r9,16(sp)
  211e54:	da800317 	ldw	r10,12(sp)
  211e58:	dac00517 	ldw	r11,20(sp)
  211e5c:	db000917 	ldw	r12,36(sp)
  211e60:	db400617 	ldw	r13,24(sp)
  211e64:	db800817 	ldw	r14,32(sp)
  211e68:	dbc00717 	ldw	r15,28(sp)
  211e6c:	1000101e 	bne	r2,zero,211eb0 <follow_path+0x1b4>
			if (IsLower(c)) c -= 0x20;	/* To upper */
  211e70:	a0bfe7c4 	addi	r2,r20,-97
  211e74:	10803fcc 	andi	r2,r2,255
  211e78:	50800136 	bltu	r10,r2,211e80 <follow_path+0x184>
  211e7c:	a53ff804 	addi	r20,r20,-32
			sfn[i++] = c;
  211e80:	8545883a 	add	r2,r16,r21
  211e84:	15000805 	stb	r20,32(r2)
		sfn[NSFLAG] = (c <= ' ') ? NS_LAST | NS_DOT : NS_DOT;	/* Set last segment flag if end of the path */
		return FR_OK;
	}
#endif
	for (;;) {
		c = (BYTE)p[si++];				/* Get a byte */
  211e88:	3005883a 	mov	r2,r6
  211e8c:	9889883a 	add	r4,r19,r2
  211e90:	25000003 	ldbu	r20,0(r4)
		if (c <= ' ') break; 			/* Break if end of the path name */
  211e94:	01000804 	movi	r4,32
			sfn[i++] = c;
			sfn[i++] = d;
		} else {						/* SBC */
			if (strchr("*+,:;<=>[]|\"\?\x7F", (int)c)) return FR_INVALID_NAME;	/* Reject illegal chrs for SFN */
			if (IsLower(c)) c -= 0x20;	/* To upper */
			sfn[i++] = c;
  211e98:	ad400044 	addi	r21,r21,1
		return FR_OK;
	}
#endif
	for (;;) {
		c = (BYTE)p[si++];				/* Get a byte */
		if (c <= ' ') break; 			/* Break if end of the path name */
  211e9c:	a1403fcc 	andi	r5,r20,255
		sfn[NSFLAG] = (c <= ' ') ? NS_LAST | NS_DOT : NS_DOT;	/* Set last segment flag if end of the path */
		return FR_OK;
	}
#endif
	for (;;) {
		c = (BYTE)p[si++];				/* Get a byte */
  211ea0:	11800044 	addi	r6,r2,1
		if (c <= ' ') break; 			/* Break if end of the path name */
  211ea4:	217fd036 	bltu	r4,r5,211de8 <follow_path+0xec>
  211ea8:	99a7883a 	add	r19,r19,r6
			if (IsLower(c)) c -= 0x20;	/* To upper */
			sfn[i++] = c;
		}
	}
	*path = &p[si];						/* Return pointer to the next segment */
	if (i == 0) return FR_INVALID_NAME;	/* Reject nul string */
  211eac:	a800251e 	bne	r21,zero,211f44 <follow_path+0x248>
		if (c <= DbcTbl[5]) return 1;					/* 2nd byte range 1 */
		if (c >= DbcTbl[6] && c <= DbcTbl[7]) return 1;	/* 2nd byte range 2 */
		if (c >= DbcTbl[8] && c <= DbcTbl[9]) return 1;	/* 2nd byte range 3 */
	}
#elif FF_CODE_PAGE >= 900	/* DBCS fixed code page */
	if (c >= DbcTbl[4]) {
  211eb0:	07000184 	movi	fp,6
			}
		}
	}

	return res;
}
  211eb4:	e005883a 	mov	r2,fp
  211eb8:	dfc01517 	ldw	ra,84(sp)
  211ebc:	df001417 	ldw	fp,80(sp)
  211ec0:	ddc01317 	ldw	r23,76(sp)
  211ec4:	dd801217 	ldw	r22,72(sp)
  211ec8:	dd401117 	ldw	r21,68(sp)
  211ecc:	dd001017 	ldw	r20,64(sp)
  211ed0:	dcc00f17 	ldw	r19,60(sp)
  211ed4:	dc800e17 	ldw	r18,56(sp)
  211ed8:	dc400d17 	ldw	r17,52(sp)
  211edc:	dc000c17 	ldw	r16,48(sp)
  211ee0:	dec01604 	addi	sp,sp,88
  211ee4:	f800283a 	ret
		if (c >= 0x80) {				/* Is SBC extended character? */
			c = ExCvt[c & 0x7F];		/* To upper SBC extended character */
		}
#endif
		if (dbc_1st(c)) {				/* Check if it is a DBC 1st byte */
			d = (BYTE)p[si++];			/* Get 2nd byte */
  211ee8:	998d883a 	add	r6,r19,r6
  211eec:	31400003 	ldbu	r5,0(r6)
  211ef0:	10800084 	addi	r2,r2,2
		if (c <= DbcTbl[5]) return 1;					/* 2nd byte range 1 */
		if (c >= DbcTbl[6] && c <= DbcTbl[7]) return 1;	/* 2nd byte range 2 */
		if (c >= DbcTbl[8] && c <= DbcTbl[9]) return 1;	/* 2nd byte range 3 */
	}
#elif FF_CODE_PAGE >= 900	/* DBCS fixed code page */
	if (c >= DbcTbl[4]) {
  211ef4:	29003fcc 	andi	r4,r5,255
  211ef8:	593fed2e 	bgeu	r11,r4,211eb0 <follow_path+0x1b4>
		if (c <= DbcTbl[5]) return 1;
  211efc:	6900022e 	bgeu	r13,r4,211f08 <follow_path+0x20c>
		if (c >= DbcTbl[6] && c <= DbcTbl[7]) return 1;
  211f00:	23ffeb26 	beq	r4,r15,211eb0 <follow_path+0x1b4>
  211f04:	713fea36 	bltu	r14,r4,211eb0 <follow_path+0x1b4>
			c = ExCvt[c & 0x7F];		/* To upper SBC extended character */
		}
#endif
		if (dbc_1st(c)) {				/* Check if it is a DBC 1st byte */
			d = (BYTE)p[si++];			/* Get 2nd byte */
			if (!dbc_2nd(d) || i >= ni - 1) return FR_INVALID_NAME;	/* Reject invalid DBC */
  211f08:	393fffc4 	addi	r4,r7,-1
  211f0c:	a93fe82e 	bgeu	r21,r4,211eb0 <follow_path+0x1b4>
			sfn[i++] = c;
  211f10:	8549883a 	add	r4,r16,r21
  211f14:	25000805 	stb	r20,32(r4)
			sfn[i++] = d;
  211f18:	21400845 	stb	r5,33(r4)
  211f1c:	ad400084 	addi	r21,r21,2
  211f20:	003fab06 	br	211dd0 <follow_path+0xd4>

/*-----------------------------------------------------------------------*/
/* Follow a file path                                                    */
/*-----------------------------------------------------------------------*/

static FRESULT follow_path (	/* FR_OK(0): successful, !=0: error code */
  211f24:	998d883a 	add	r6,r19,r6
#endif
	for (;;) {
		c = (BYTE)p[si++];				/* Get a byte */
		if (c <= ' ') break; 			/* Break if end of the path name */
		if (IsSeparator(c)) {			/* Break if a separator is found */
			while (IsSeparator(p[si])) si++;	/* Skip duplicated separators */
  211f28:	00c01704 	movi	r3,92
  211f2c:	30800007 	ldb	r2,0(r6)
  211f30:	3027883a 	mov	r19,r6
  211f34:	31800044 	addi	r6,r6,1
  211f38:	15bffc26 	beq	r2,r22,211f2c <follow_path+0x230>
  211f3c:	10fffb26 	beq	r2,r3,211f2c <follow_path+0x230>
			if (IsLower(c)) c -= 0x20;	/* To upper */
			sfn[i++] = c;
		}
	}
	*path = &p[si];						/* Return pointer to the next segment */
	if (i == 0) return FR_INVALID_NAME;	/* Reject nul string */
  211f40:	a83fdb26 	beq	r21,zero,211eb0 <follow_path+0x1b4>

	if (sfn[0] == DDEM) sfn[0] = RDDEM;	/* If the first character collides with DDEM, replace it with RDDEM */
  211f44:	80c00803 	ldbu	r3,32(r16)
  211f48:	00803944 	movi	r2,229
  211f4c:	18805f26 	beq	r3,r2,2120cc <follow_path+0x3d0>
	sfn[NSFLAG] = (c <= ' ' || p[si] <= ' ') ? NS_LAST : 0;	/* Set last segment flag if end of the path */
  211f50:	00800804 	movi	r2,32
  211f54:	11405636 	bltu	r2,r5,2120b0 <follow_path+0x3b4>
  211f58:	00c00104 	movi	r3,4
  211f5c:	d8c00005 	stb	r3,0(sp)
  211f60:	d8c00003 	ldbu	r3,0(sp)
	BYTE et;
#if FF_USE_LFN
	BYTE attr, ord, sum;
#endif

	res = dir_sdi(dp, 0);			/* Rewind directory object */
  211f64:	8009883a 	mov	r4,r16
static FRESULT dir_find (	/* FR_OK(0):succeeded, !=0:error */
	DIR* dp					/* Pointer to the directory object with the file name */
)
{
	FRESULT res;
	FATFS *fs = dp->obj.fs;
  211f68:	85000017 	ldw	r20,0(r16)
	}
	*path = &p[si];						/* Return pointer to the next segment */
	if (i == 0) return FR_INVALID_NAME;	/* Reject nul string */

	if (sfn[0] == DDEM) sfn[0] = RDDEM;	/* If the first character collides with DDEM, replace it with RDDEM */
	sfn[NSFLAG] = (c <= ' ' || p[si] <= ' ') ? NS_LAST : 0;	/* Set last segment flag if end of the path */
  211f6c:	80c00ac5 	stb	r3,43(r16)
	BYTE et;
#if FF_USE_LFN
	BYTE attr, ord, sum;
#endif

	res = dir_sdi(dp, 0);			/* Rewind directory object */
  211f70:	021185c0 	call	21185c <dir_sdi.constprop.12>
  211f74:	102f883a 	mov	r23,r2
	if (res != FR_OK) return res;
  211f78:	1000191e 	bne	r2,zero,211fe0 <follow_path+0x2e4>
	/* On the FAT/FAT32 volume */
#if FF_USE_LFN
	ord = sum = 0xFF; dp->blk_ofs = 0xFFFFFFFF;	/* Reset LFN sequence */
#endif
	do {
		res = move_window(fs, dp->sect);
  211f7c:	81400617 	ldw	r5,24(r16)
  211f80:	a009883a 	mov	r4,r20
  211f84:	0210fd00 	call	210fd0 <move_window>
  211f88:	102f883a 	mov	r23,r2
				ord = 0xFF; dp->blk_ofs = 0xFFFFFFFF;	/* Not matched, reset LFN sequence */
			}
		}
#else		/* Non LFN configuration */
		dp->obj.attr = dp->dir[DIR_Attr] & AM_MASK;
		if (!(dp->dir[DIR_Attr] & AM_VOL) && !memcmp(dp->dir, dp->fn, 11)) break;	/* Is it a valid entry? */
  211f8c:	880b883a 	mov	r5,r17
  211f90:	018002c4 	movi	r6,11
#if FF_USE_LFN
	ord = sum = 0xFF; dp->blk_ofs = 0xFFFFFFFF;	/* Reset LFN sequence */
#endif
	do {
		res = move_window(fs, dp->sect);
		if (res != FR_OK) break;
  211f94:	1000121e 	bne	r2,zero,211fe0 <follow_path+0x2e4>
		et = dp->dir[DIR_Name];		/* Entry type */
  211f98:	80c00717 	ldw	r3,28(r16)
		if (et == 0) { res = FR_NO_FILE; break; }	/* Reached end of directory table */
  211f9c:	18800003 	ldbu	r2,0(r3)
				ord = 0xFF; dp->blk_ofs = 0xFFFFFFFF;	/* Not matched, reset LFN sequence */
			}
		}
#else		/* Non LFN configuration */
		dp->obj.attr = dp->dir[DIR_Attr] & AM_MASK;
		if (!(dp->dir[DIR_Attr] & AM_VOL) && !memcmp(dp->dir, dp->fn, 11)) break;	/* Is it a valid entry? */
  211fa0:	1809883a 	mov	r4,r3
#endif
	do {
		res = move_window(fs, dp->sect);
		if (res != FR_OK) break;
		et = dp->dir[DIR_Name];		/* Entry type */
		if (et == 0) { res = FR_NO_FILE; break; }	/* Reached end of directory table */
  211fa4:	10001626 	beq	r2,zero,212000 <follow_path+0x304>
				if (!(dp->fn[NSFLAG] & NS_LOSS) && !memcmp(dp->dir, dp->fn, 11)) break;	/* SFN matched? */
				ord = 0xFF; dp->blk_ofs = 0xFFFFFFFF;	/* Not matched, reset LFN sequence */
			}
		}
#else		/* Non LFN configuration */
		dp->obj.attr = dp->dir[DIR_Attr] & AM_MASK;
  211fa8:	1d4002c3 	ldbu	r21,11(r3)
  211fac:	ad400fcc 	andi	r21,r21,63
  211fb0:	85400185 	stb	r21,6(r16)
		if (!(dp->dir[DIR_Attr] & AM_VOL) && !memcmp(dp->dir, dp->fn, 11)) break;	/* Is it a valid entry? */
  211fb4:	188002c3 	ldbu	r2,11(r3)
  211fb8:	1080020c 	andi	r2,r2,8
  211fbc:	10803fcc 	andi	r2,r2,255
  211fc0:	1000021e 	bne	r2,zero,211fcc <follow_path+0x2d0>
  211fc4:	021a3800 	call	21a380 <memcmp>
  211fc8:	10000f26 	beq	r2,zero,212008 <follow_path+0x30c>
#endif
		res = dir_next(dp, 0);	/* Next entry */
  211fcc:	8009883a 	mov	r4,r16
  211fd0:	000b883a 	mov	r5,zero
  211fd4:	0211b8c0 	call	211b8c <dir_next>
  211fd8:	102f883a 	mov	r23,r2
	} while (res == FR_OK);
  211fdc:	103fe726 	beq	r2,zero,211f7c <follow_path+0x280>
  211fe0:	b839883a 	mov	fp,r23
				continue;		/* Follow next segment */
			}
#endif
			res = dir_find(dp);				/* Find an object with the segment name */
			if (res != FR_OK) {				/* Failed to find the object */
				if (res == FR_NO_FILE) {	/* Object is not found */
  211fe4:	00800104 	movi	r2,4
  211fe8:	ddc00003 	ldbu	r23,0(sp)
  211fec:	e0bfb11e 	bne	fp,r2,211eb4 <follow_path+0x1b8>
					if (FF_FS_RPATH && (ns & NS_DOT)) {	/* If dot entry is not exist, stay there (may be root dir in FAT volume) */
						if (!(ns & NS_LAST)) continue;	/* Continue to follow if not last segment */
						dp->fn[NSFLAG] = NS_NONAME;
						res = FR_OK;
					} else {							/* Could not find the object */
						if (!(ns & NS_LAST)) res = FR_NO_PATH;	/* Adjust error code if not last segment */
  211ff0:	bf003fcc 	andi	fp,r23,255
  211ff4:	e039003a 	cmpeq	fp,fp,zero
  211ff8:	e7000104 	addi	fp,fp,4
  211ffc:	003fad06 	br	211eb4 <follow_path+0x1b8>
  212000:	ddc00003 	ldbu	r23,0(sp)
  212004:	003ffa06 	br	211ff0 <follow_path+0x2f4>
				}
				fs->xcwds2.tbl[fs->xcwds2.depth].d_scl = ld_32(fs->dirbuf + XDIR_FstClus);
				fs->xcwds2.tbl[fs->xcwds2.depth].d_size = ld_32(fs->dirbuf + XDIR_FileSize) | (fs->dirbuf[XDIR_GenFlags] & 2);
			}
#endif
			if (ns & NS_LAST) break;		/* If last segment matched, the function completed */
  212008:	d8800003 	ldbu	r2,0(sp)
  21200c:	10803fcc 	andi	r2,r2,255
  212010:	1000311e 	bne	r2,zero,2120d8 <follow_path+0x3dc>
			/* Get into the sub-directory */
			if (!(dp->obj.attr & AM_DIR)) {
  212014:	ad40040c 	andi	r21,r21,16
  212018:	ad403fcc 	andi	r21,r21,255
  21201c:	a8002926 	beq	r21,zero,2120c4 <follow_path+0x3c8>
			if (fs->fs_type == FS_EXFAT) {
				init_alloc_info(&dp->obj, dp);	/* Open next directory */
			} else
#endif
			{
				dp->obj.sclust = ld_clust(fs, fs->win + dp->dptr % SS(fs));	/* Open next directory */
  212020:	80800417 	ldw	r2,16(r16)
)
{
	DWORD cl;

	cl = ld_16(dir + DIR_FstClusLO);
	if (fs->fs_type == FS_FAT32) {
  212024:	e1400003 	ldbu	r5,0(fp)
			if (fs->fs_type == FS_EXFAT) {
				init_alloc_info(&dp->obj, dp);	/* Open next directory */
			} else
#endif
			{
				dp->obj.sclust = ld_clust(fs, fs->win + dp->dptr % SS(fs));	/* Open next directory */
  212028:	10807fcc 	andi	r2,r2,511
  21202c:	10800c04 	addi	r2,r2,48
  212030:	e085883a 	add	r2,fp,r2
static WORD ld_16 (const BYTE* ptr)	/*	 Load a 2-byte little-endian word */
{
	WORD rv;

	rv = ptr[1];
	rv = rv << 8 | ptr[0];
  212034:	10c006c3 	ldbu	r3,27(r2)
  212038:	11000683 	ldbu	r4,26(r2)
  21203c:	1806923a 	slli	r3,r3,8
	const BYTE* dir		/* Pointer to the key entry */
)
{
	DWORD cl;

	cl = ld_16(dir + DIR_FstClusLO);
  212040:	1906b03a 	or	r3,r3,r4
	if (fs->fs_type == FS_FAT32) {
  212044:	010000c4 	movi	r4,3
  212048:	29000226 	beq	r5,r4,212054 <follow_path+0x358>
			if (fs->fs_type == FS_EXFAT) {
				init_alloc_info(&dp->obj, dp);	/* Open next directory */
			} else
#endif
			{
				dp->obj.sclust = ld_clust(fs, fs->win + dp->dptr % SS(fs));	/* Open next directory */
  21204c:	80c00215 	stw	r3,8(r16)
			}
		}
  212050:	003f4706 	br	211d70 <follow_path+0x74>
static WORD ld_16 (const BYTE* ptr)	/*	 Load a 2-byte little-endian word */
{
	WORD rv;

	rv = ptr[1];
	rv = rv << 8 | ptr[0];
  212054:	11400543 	ldbu	r5,21(r2)
  212058:	11000503 	ldbu	r4,20(r2)
  21205c:	2804923a 	slli	r2,r5,8
{
	DWORD cl;

	cl = ld_16(dir + DIR_FstClusLO);
	if (fs->fs_type == FS_FAT32) {
		cl |= (DWORD)ld_16(dir + DIR_FstClusHI) << 16;
  212060:	1104b03a 	or	r2,r2,r4
  212064:	1004943a 	slli	r2,r2,16
  212068:	1886b03a 	or	r3,r3,r2
			if (fs->fs_type == FS_EXFAT) {
				init_alloc_info(&dp->obj, dp);	/* Open next directory */
			} else
#endif
			{
				dp->obj.sclust = ld_clust(fs, fs->win + dp->dptr % SS(fs));	/* Open next directory */
  21206c:	80c00215 	stw	r3,8(r16)
  212070:	003f3f06 	br	211d70 <follow_path+0x74>
	}
#endif
#endif

	if ((UINT)*path < ' ') {				/* Null path name is the origin directory itself */
		dp->fn[NSFLAG] = NS_NONAME;
  212074:	00bfe004 	movi	r2,-128
		res = dir_sdi(dp, 0);
  212078:	8009883a 	mov	r4,r16
	}
#endif
#endif

	if ((UINT)*path < ' ') {				/* Null path name is the origin directory itself */
		dp->fn[NSFLAG] = NS_NONAME;
  21207c:	80800ac5 	stb	r2,43(r16)
			}
		}
	}

	return res;
}
  212080:	dfc01517 	ldw	ra,84(sp)
  212084:	df001417 	ldw	fp,80(sp)
  212088:	ddc01317 	ldw	r23,76(sp)
  21208c:	dd801217 	ldw	r22,72(sp)
  212090:	dd401117 	ldw	r21,68(sp)
  212094:	dd001017 	ldw	r20,64(sp)
  212098:	dcc00f17 	ldw	r19,60(sp)
  21209c:	dc800e17 	ldw	r18,56(sp)
  2120a0:	dc400d17 	ldw	r17,52(sp)
  2120a4:	dc000c17 	ldw	r16,48(sp)
  2120a8:	dec01604 	addi	sp,sp,88
#endif
#endif

	if ((UINT)*path < ' ') {				/* Null path name is the origin directory itself */
		dp->fn[NSFLAG] = NS_NONAME;
		res = dir_sdi(dp, 0);
  2120ac:	021185c1 	jmpi	21185c <dir_sdi.constprop.12>
	}
	*path = &p[si];						/* Return pointer to the next segment */
	if (i == 0) return FR_INVALID_NAME;	/* Reject nul string */

	if (sfn[0] == DDEM) sfn[0] = RDDEM;	/* If the first character collides with DDEM, replace it with RDDEM */
	sfn[NSFLAG] = (c <= ' ' || p[si] <= ' ') ? NS_LAST : 0;	/* Set last segment flag if end of the path */
  2120b0:	98800007 	ldb	r2,0(r19)
  2120b4:	01000804 	movi	r4,32
  2120b8:	20bfa70e 	bge	r4,r2,211f58 <follow_path+0x25c>
  2120bc:	d8000005 	stb	zero,0(sp)
  2120c0:	003fa706 	br	211f60 <follow_path+0x264>
			}
#endif
			if (ns & NS_LAST) break;		/* If last segment matched, the function completed */
			/* Get into the sub-directory */
			if (!(dp->obj.attr & AM_DIR)) {
				res = FR_NO_PATH; break;	/* It is not a sub-directory and cannot follow the path */
  2120c4:	07000144 	movi	fp,5
  2120c8:	003f7a06 	br	211eb4 <follow_path+0x1b8>
		}
	}
	*path = &p[si];						/* Return pointer to the next segment */
	if (i == 0) return FR_INVALID_NAME;	/* Reject nul string */

	if (sfn[0] == DDEM) sfn[0] = RDDEM;	/* If the first character collides with DDEM, replace it with RDDEM */
  2120cc:	00800144 	movi	r2,5
  2120d0:	80800805 	stb	r2,32(r16)
  2120d4:	003f9e06 	br	211f50 <follow_path+0x254>
  2120d8:	b839883a 	mov	fp,r23
  2120dc:	003f7506 	br	211eb4 <follow_path+0x1b8>
		if (IsSeparator(c)) {			/* Break if a separator is found */
			while (IsSeparator(p[si])) si++;	/* Skip duplicated separators */
			break;
		}
		if (c == '.' || i >= ni) {		/* End of body or field overflow? */
			if (ni == 11 || c != '.') return FR_INVALID_NAME;	/* Field overflow or invalid dot? */
  2120e0:	010002c4 	movi	r4,11
  2120e4:	393f7226 	beq	r7,r4,211eb0 <follow_path+0x1b4>
		sfn[NSFLAG] = (c <= ' ') ? NS_LAST | NS_DOT : NS_DOT;	/* Set last segment flag if end of the path */
		return FR_OK;
	}
#endif
	for (;;) {
		c = (BYTE)p[si++];				/* Get a byte */
  2120e8:	3005883a 	mov	r2,r6
			while (IsSeparator(p[si])) si++;	/* Skip duplicated separators */
			break;
		}
		if (c == '.' || i >= ni) {		/* End of body or field overflow? */
			if (ni == 11 || c != '.') return FR_INVALID_NAME;	/* Field overflow or invalid dot? */
			i = 8; ni = 11;				/* Enter file extension field */
  2120ec:	05400204 	movi	r21,8
  2120f0:	200f883a 	mov	r7,r4
  2120f4:	003f3606 	br	211dd0 <follow_path+0xd4>

002120f8 <dir_read.constprop.10>:
/*-----------------------------------------------------------------------*/

#define DIR_READ_FILE(dp) dir_read(dp, 0)
#define DIR_READ_LABEL(dp) dir_read(dp, 1)

static FRESULT dir_read (
  2120f8:	defff804 	addi	sp,sp,-32
  2120fc:	dd800615 	stw	r22,24(sp)
  212100:	dd400515 	stw	r21,20(sp)
  212104:	dd000415 	stw	r20,16(sp)
  212108:	dcc00315 	stw	r19,12(sp)
  21210c:	dc800215 	stw	r18,8(sp)
  212110:	dc400115 	stw	r17,4(sp)
  212114:	dc000015 	stw	r16,0(sp)
  212118:	dfc00715 	stw	ra,28(sp)
  21211c:	2021883a 	mov	r16,r4
	DIR* dp,		/* Pointer to the directory object */
	int vol			/* Filtered by 0:file/directory or 1:volume label */
)
{
	FRESULT res = FR_NO_FILE;
	FATFS *fs = dp->obj.fs;
  212120:	24400017 	ldw	r17,0(r4)
static FRESULT dir_read (
	DIR* dp,		/* Pointer to the directory object */
	int vol			/* Filtered by 0:file/directory or 1:volume label */
)
{
	FRESULT res = FR_NO_FILE;
  212124:	00800104 	movi	r2,4
					}
					break;
				}
			}
#else		/* Non LFN configuration */
			if (et != DDEM && et != '.' && attr != AM_LFN && (int)((attr & ~AM_ARC) == AM_VOL) == vol) {	/* Is it a valid entry? */
  212128:	04c03944 	movi	r19,229
  21212c:	05000b84 	movi	r20,46
  212130:	054003c4 	movi	r21,15
  212134:	04bff7c4 	movi	r18,-33
  212138:	05800204 	movi	r22,8
  21213c:	00001206 	br	212188 <dir_read.constprop.10+0x90>
#if FF_USE_LFN
	BYTE ord = 0xFF, sum = 0xFF;
#endif

	while (dp->sect) {
		res = move_window(fs, dp->sect);
  212140:	0210fd00 	call	210fd0 <move_window>
			if (et != DDEM && et != '.' && attr != AM_LFN && (int)((attr & ~AM_ARC) == AM_VOL) == vol) {	/* Is it a valid entry? */
				break;
			}
#endif
		}
		res = dir_next(dp, 0);		/* Next entry */
  212144:	8009883a 	mov	r4,r16
  212148:	000b883a 	mov	r5,zero
	BYTE ord = 0xFF, sum = 0xFF;
#endif

	while (dp->sect) {
		res = move_window(fs, dp->sect);
		if (res != FR_OK) break;
  21214c:	10001e1e 	bne	r2,zero,2121c8 <dir_read.constprop.10+0xd0>
		et = dp->dir[DIR_Name];	/* Test for the entry type */
  212150:	81800717 	ldw	r6,28(r16)
		if (et == 0) {
  212154:	30c00003 	ldbu	r3,0(r6)
  212158:	18001a26 	beq	r3,zero,2121c4 <dir_read.constprop.10+0xcc>
				}
			}
		} else
#endif
		{	/* On the FAT/FAT32 volume */
			dp->obj.attr = attr = dp->dir[DIR_Attr] & AM_MASK;	/* Get attribute */
  21215c:	318002c3 	ldbu	r6,11(r6)
  212160:	31800fcc 	andi	r6,r6,63
  212164:	81800185 	stb	r6,6(r16)
					}
					break;
				}
			}
#else		/* Non LFN configuration */
			if (et != DDEM && et != '.' && attr != AM_LFN && (int)((attr & ~AM_ARC) == AM_VOL) == vol) {	/* Is it a valid entry? */
  212168:	31803fcc 	andi	r6,r6,255
  21216c:	348e703a 	and	r7,r6,r18
  212170:	1cc00326 	beq	r3,r19,212180 <dir_read.constprop.10+0x88>
  212174:	1d000226 	beq	r3,r20,212180 <dir_read.constprop.10+0x88>
  212178:	35400126 	beq	r6,r21,212180 <dir_read.constprop.10+0x88>
  21217c:	3d80071e 	bne	r7,r22,21219c <dir_read.constprop.10+0xa4>
				break;
			}
#endif
		}
		res = dir_next(dp, 0);		/* Next entry */
  212180:	0211b8c0 	call	211b8c <dir_next>
		if (res != FR_OK) break;
  212184:	1000101e 	bne	r2,zero,2121c8 <dir_read.constprop.10+0xd0>
	BYTE attr, et;
#if FF_USE_LFN
	BYTE ord = 0xFF, sum = 0xFF;
#endif

	while (dp->sect) {
  212188:	80c00617 	ldw	r3,24(r16)
		res = move_window(fs, dp->sect);
  21218c:	8809883a 	mov	r4,r17
  212190:	180b883a 	mov	r5,r3
	BYTE attr, et;
#if FF_USE_LFN
	BYTE ord = 0xFF, sum = 0xFF;
#endif

	while (dp->sect) {
  212194:	183fea1e 	bne	r3,zero,212140 <dir_read.constprop.10+0x48>
		}
		res = dir_next(dp, 0);		/* Next entry */
		if (res != FR_OK) break;
	}

	if (res != FR_OK) dp->sect = 0;		/* Terminate the read operation on error or EOT */
  212198:	10000b1e 	bne	r2,zero,2121c8 <dir_read.constprop.10+0xd0>
	return res;
}
  21219c:	dfc00717 	ldw	ra,28(sp)
  2121a0:	dd800617 	ldw	r22,24(sp)
  2121a4:	dd400517 	ldw	r21,20(sp)
  2121a8:	dd000417 	ldw	r20,16(sp)
  2121ac:	dcc00317 	ldw	r19,12(sp)
  2121b0:	dc800217 	ldw	r18,8(sp)
  2121b4:	dc400117 	ldw	r17,4(sp)
  2121b8:	dc000017 	ldw	r16,0(sp)
  2121bc:	dec00804 	addi	sp,sp,32
  2121c0:	f800283a 	ret
	while (dp->sect) {
		res = move_window(fs, dp->sect);
		if (res != FR_OK) break;
		et = dp->dir[DIR_Name];	/* Test for the entry type */
		if (et == 0) {
			res = FR_NO_FILE; break; /* Reached to end of the directory */
  2121c4:	00800104 	movi	r2,4
		}
		res = dir_next(dp, 0);		/* Next entry */
		if (res != FR_OK) break;
	}

	if (res != FR_OK) dp->sect = 0;		/* Terminate the read operation on error or EOT */
  2121c8:	80000615 	stw	zero,24(r16)
  2121cc:	003ff306 	br	21219c <dir_read.constprop.10+0xa4>

002121d0 <dir_register>:
/*-----------------------------------------------------------------------*/

static FRESULT dir_register (	/* FR_OK:succeeded, FR_DENIED:no free entry or too many SFN collision, FR_DISK_ERR:disk error */
	DIR* dp						/* Target directory with object name to be created */
)
{
  2121d0:	defffb04 	addi	sp,sp,-20
  2121d4:	dc800215 	stw	r18,8(sp)
  2121d8:	dc400115 	stw	r17,4(sp)
  2121dc:	dc000015 	stw	r16,0(sp)
  2121e0:	dfc00415 	stw	ra,16(sp)
  2121e4:	dcc00315 	stw	r19,12(sp)
  2121e8:	2023883a 	mov	r17,r4
	FRESULT res;
	FATFS *fs = dp->obj.fs;
  2121ec:	24800017 	ldw	r18,0(r4)
	FRESULT res;
	UINT n;
	FATFS *fs = dp->obj.fs;


	res = dir_sdi(dp, 0);
  2121f0:	021185c0 	call	21185c <dir_sdi.constprop.12>
  2121f4:	1021883a 	mov	r16,r2
	if (res == FR_OK) {
  2121f8:	10000b26 	beq	r2,zero,212228 <dir_register+0x58>
			}
			res = dir_next(dp, 1);	/* Next entry with table stretch enabled */
		} while (res == FR_OK);
	}

	if (res == FR_NO_FILE) res = FR_DENIED;	/* No directory entry to allocate */
  2121fc:	00800104 	movi	r2,4
  212200:	8080011e 	bne	r16,r2,212208 <dir_register+0x38>
  212204:	040001c4 	movi	r16,7
			fs->wflag = 1;
		}
	}

	return res;
}
  212208:	8005883a 	mov	r2,r16
  21220c:	dfc00417 	ldw	ra,16(sp)
  212210:	dcc00317 	ldw	r19,12(sp)
  212214:	dc800217 	ldw	r18,8(sp)
  212218:	dc400117 	ldw	r17,4(sp)
  21221c:	dc000017 	ldw	r16,0(sp)
  212220:	dec00504 	addi	sp,sp,20
  212224:	f800283a 	ret
			res = move_window(fs, dp->sect);
			if (res != FR_OK) break;
#if FF_FS_EXFAT
			if ((fs->fs_type == FS_EXFAT) ? (int)((dp->dir[XDIR_Type] & 0x80) == 0) : (int)(dp->dir[DIR_Name] == DDEM || dp->dir[DIR_Name] == 0)) {	/* Is the entry free? */
#else
			if (dp->dir[DIR_Name] == DDEM || dp->dir[DIR_Name] == 0) {	/* Is the entry free? */
  212228:	04c03944 	movi	r19,229

	res = dir_sdi(dp, 0);
	if (res == FR_OK) {
		n = 0;
		do {
			res = move_window(fs, dp->sect);
  21222c:	89400617 	ldw	r5,24(r17)
  212230:	9009883a 	mov	r4,r18
  212234:	0210fd00 	call	210fd0 <move_window>
  212238:	1021883a 	mov	r16,r2
			if (res != FR_OK) break;
  21223c:	103fef1e 	bne	r2,zero,2121fc <dir_register+0x2c>
#if FF_FS_EXFAT
			if ((fs->fs_type == FS_EXFAT) ? (int)((dp->dir[XDIR_Type] & 0x80) == 0) : (int)(dp->dir[DIR_Name] == DDEM || dp->dir[DIR_Name] == 0)) {	/* Is the entry free? */
#else
			if (dp->dir[DIR_Name] == DDEM || dp->dir[DIR_Name] == 0) {	/* Is the entry free? */
  212240:	88800717 	ldw	r2,28(r17)
  212244:	10800003 	ldbu	r2,0(r2)
  212248:	14c00326 	beq	r2,r19,212258 <dir_register+0x88>
#endif
				if (++n == n_ent) break;	/* Is a block of contiguous free entries found? */
			} else {
				n = 0;				/* Not a free entry, restart to search */
			}
			res = dir_next(dp, 1);	/* Next entry with table stretch enabled */
  21224c:	8809883a 	mov	r4,r17
  212250:	01400044 	movi	r5,1
			res = move_window(fs, dp->sect);
			if (res != FR_OK) break;
#if FF_FS_EXFAT
			if ((fs->fs_type == FS_EXFAT) ? (int)((dp->dir[XDIR_Type] & 0x80) == 0) : (int)(dp->dir[DIR_Name] == DDEM || dp->dir[DIR_Name] == 0)) {	/* Is the entry free? */
#else
			if (dp->dir[DIR_Name] == DDEM || dp->dir[DIR_Name] == 0) {	/* Is the entry free? */
  212254:	10002b1e 	bne	r2,zero,212304 <dir_register+0x134>

#endif

	/* Set SFN entry */
	if (res == FR_OK) {
		res = move_window(fs, dp->sect);
  212258:	89400617 	ldw	r5,24(r17)
  21225c:	9009883a 	mov	r4,r18
  212260:	0210fd00 	call	210fd0 <move_window>
  212264:	1021883a 	mov	r16,r2
		if (res == FR_OK) {
  212268:	103fe71e 	bne	r2,zero,212208 <dir_register+0x38>
			memset(dp->dir, 0, SZDIRE);	/* Clean the entry */
  21226c:	89000717 	ldw	r4,28(r17)
  212270:	000b883a 	mov	r5,zero
  212274:	01800804 	movi	r6,32
  212278:	021a3f00 	call	21a3f0 <memset>
			memcpy(dp->dir + DIR_Name, dp->fn, 11);	/* Put SFN */
  21227c:	88c00804 	addi	r3,r17,32
  212280:	19000003 	ldbu	r4,0(r3)
  212284:	88800717 	ldw	r2,28(r17)
  212288:	11000005 	stb	r4,0(r2)
  21228c:	89000843 	ldbu	r4,33(r17)
  212290:	11000045 	stb	r4,1(r2)
  212294:	89000883 	ldbu	r4,34(r17)
  212298:	11000085 	stb	r4,2(r2)
  21229c:	890008c3 	ldbu	r4,35(r17)
  2122a0:	110000c5 	stb	r4,3(r2)
  2122a4:	89000903 	ldbu	r4,36(r17)
  2122a8:	11000105 	stb	r4,4(r2)
  2122ac:	89000943 	ldbu	r4,37(r17)
  2122b0:	11000145 	stb	r4,5(r2)
  2122b4:	89000983 	ldbu	r4,38(r17)
  2122b8:	11000185 	stb	r4,6(r2)
  2122bc:	890009c3 	ldbu	r4,39(r17)
  2122c0:	110001c5 	stb	r4,7(r2)
  2122c4:	89000a03 	ldbu	r4,40(r17)
  2122c8:	11000205 	stb	r4,8(r2)
  2122cc:	89000a43 	ldbu	r4,41(r17)
  2122d0:	11000245 	stb	r4,9(r2)
  2122d4:	88c00a83 	ldbu	r3,42(r17)
  2122d8:	10c00285 	stb	r3,10(r2)
#if FF_USE_LFN
			dp->dir[DIR_NTres] = dp->fn[NSFLAG] & (NS_BODY | NS_EXT);	/* Put low-case flags */
#endif
			fs->wflag = 1;
  2122dc:	00800044 	movi	r2,1
  2122e0:	90800105 	stb	r2,4(r18)
		}
	}

	return res;
}
  2122e4:	8005883a 	mov	r2,r16
  2122e8:	dfc00417 	ldw	ra,16(sp)
  2122ec:	dcc00317 	ldw	r19,12(sp)
  2122f0:	dc800217 	ldw	r18,8(sp)
  2122f4:	dc400117 	ldw	r17,4(sp)
  2122f8:	dc000017 	ldw	r16,0(sp)
  2122fc:	dec00504 	addi	sp,sp,20
  212300:	f800283a 	ret
#endif
				if (++n == n_ent) break;	/* Is a block of contiguous free entries found? */
			} else {
				n = 0;				/* Not a free entry, restart to search */
			}
			res = dir_next(dp, 1);	/* Next entry with table stretch enabled */
  212304:	0211b8c0 	call	211b8c <dir_next>
  212308:	1021883a 	mov	r16,r2
		} while (res == FR_OK);
  21230c:	103fc726 	beq	r2,zero,21222c <dir_register+0x5c>
  212310:	003fba06 	br	2121fc <dir_register+0x2c>

00212314 <mount_volume>:
static FRESULT mount_volume (	/* FR_OK(0): successful, !=0: an error occurred */
	const TCHAR** path,			/* Pointer to pointer to the path name (drive number) */
	FATFS** rfs,				/* Pointer to pointer to the found filesystem object */
	BYTE mode					/* Desiered access mode to check write protection */
)
{
  212314:	defff204 	addi	sp,sp,-56
  212318:	dc800615 	stw	r18,24(sp)
  21231c:	dc400515 	stw	r17,20(sp)
  212320:	dfc00d15 	stw	ra,52(sp)
  212324:	df000c15 	stw	fp,48(sp)
  212328:	ddc00b15 	stw	r23,44(sp)
  21232c:	dd800a15 	stw	r22,40(sp)
  212330:	dd400915 	stw	r21,36(sp)
  212334:	dd000815 	stw	r20,32(sp)
  212338:	dcc00715 	stw	r19,28(sp)
  21233c:	dc000415 	stw	r16,16(sp)
	LBA_t bsect;
	UINT fmt;


	/* Get logical drive number */
	*rfs = 0;
  212340:	28000015 	stw	zero,0(r5)
static FRESULT mount_volume (	/* FR_OK(0): successful, !=0: an error occurred */
	const TCHAR** path,			/* Pointer to pointer to the path name (drive number) */
	FATFS** rfs,				/* Pointer to pointer to the found filesystem object */
	BYTE mode					/* Desiered access mode to check write protection */
)
{
  212344:	2823883a 	mov	r17,r5
  212348:	3025883a 	mov	r18,r6
	UINT fmt;


	/* Get logical drive number */
	*rfs = 0;
	vol = get_ldnumber(path);
  21234c:	0210d2c0 	call	210d2c <get_ldnumber>
	if (vol < 0) return FR_INVALID_DRIVE;
  212350:	10002016 	blt	r2,zero,2123d4 <mount_volume+0xc0>

	/* Check if the filesystem object is valid or not */
	fs = FatFs[vol];					/* Get pointer to the filesystem object */
  212354:	1085883a 	add	r2,r2,r2
  212358:	1085883a 	add	r2,r2,r2
  21235c:	d0e0e204 	addi	r3,gp,-31864
  212360:	1885883a 	add	r2,r3,r2
  212364:	14000017 	ldw	r16,0(r2)
	if (!fs) return FR_NOT_ENABLED;		/* Is the filesystem object available? */
  212368:	80001c26 	beq	r16,zero,2123dc <mount_volume+0xc8>
#if FF_FS_REENTRANT
	if (!lock_volume(fs, 1)) return FR_TIMEOUT;	/* Lock the volume, and system if needed */
#endif
	*rfs = fs;							/* Return pointer to the filesystem object */
  21236c:	8c000015 	stw	r16,0(r17)

	mode &= (BYTE)~FA_READ;				/* Desired access mode, write access or not */
	if (fs->fs_type != 0) {				/* If the volume has been mounted */
  212370:	80800003 	ldbu	r2,0(r16)
#if FF_FS_REENTRANT
	if (!lock_volume(fs, 1)) return FR_TIMEOUT;	/* Lock the volume, and system if needed */
#endif
	*rfs = fs;							/* Return pointer to the filesystem object */

	mode &= (BYTE)~FA_READ;				/* Desired access mode, write access or not */
  212374:	94803f8c 	andi	r18,r18,254
	if (fs->fs_type != 0) {				/* If the volume has been mounted */
  212378:	10000426 	beq	r2,zero,21238c <mount_volume+0x78>
		stat = disk_status(fs->pdrv);
  21237c:	81000043 	ldbu	r4,1(r16)
  212380:	02105900 	call	210590 <disk_status>
		if (!(stat & STA_NOINIT)) {		/* and the physical drive is kept initialized */
  212384:	10c0004c 	andi	r3,r2,1
  212388:	18001626 	beq	r3,zero,2123e4 <mount_volume+0xd0>

	/* The filesystem object is not valid. */
	/* Following code attempts to mount the volume. (find an FAT volume, analyze the BPB and initialize the filesystem object) */

	fs->fs_type = 0;					/* Invalidate the filesystem object */
	stat = disk_initialize(fs->pdrv);	/* Initialize the volume hosting physical drive */
  21238c:	81000043 	ldbu	r4,1(r16)
	}

	/* The filesystem object is not valid. */
	/* Following code attempts to mount the volume. (find an FAT volume, analyze the BPB and initialize the filesystem object) */

	fs->fs_type = 0;					/* Invalidate the filesystem object */
  212390:	80000005 	stb	zero,0(r16)
	stat = disk_initialize(fs->pdrv);	/* Initialize the volume hosting physical drive */
  212394:	02105a80 	call	2105a8 <disk_initialize>
	if (stat & STA_NOINIT) { 			/* Check if the initialization succeeded */
  212398:	10c0004c 	andi	r3,r2,1
  21239c:	18001a26 	beq	r3,zero,212408 <mount_volume+0xf4>
		return FR_NOT_READY;			/* Failed to initialize due to no medium or hard error */
  2123a0:	008000c4 	movi	r2,3
#if FF_FS_LOCK				/* Clear file lock semaphores */
	clear_share(fs);
#endif

	return FR_OK;
}
  2123a4:	dfc00d17 	ldw	ra,52(sp)
  2123a8:	df000c17 	ldw	fp,48(sp)
  2123ac:	ddc00b17 	ldw	r23,44(sp)
  2123b0:	dd800a17 	ldw	r22,40(sp)
  2123b4:	dd400917 	ldw	r21,36(sp)
  2123b8:	dd000817 	ldw	r20,32(sp)
  2123bc:	dcc00717 	ldw	r19,28(sp)
  2123c0:	dc800617 	ldw	r18,24(sp)
  2123c4:	dc400517 	ldw	r17,20(sp)
  2123c8:	dc000417 	ldw	r16,16(sp)
  2123cc:	dec00e04 	addi	sp,sp,56
  2123d0:	f800283a 	ret


	/* Get logical drive number */
	*rfs = 0;
	vol = get_ldnumber(path);
	if (vol < 0) return FR_INVALID_DRIVE;
  2123d4:	008002c4 	movi	r2,11
  2123d8:	003ff206 	br	2123a4 <mount_volume+0x90>

	/* Check if the filesystem object is valid or not */
	fs = FatFs[vol];					/* Get pointer to the filesystem object */
	if (!fs) return FR_NOT_ENABLED;		/* Is the filesystem object available? */
  2123dc:	00800304 	movi	r2,12
  2123e0:	003ff006 	br	2123a4 <mount_volume+0x90>

	mode &= (BYTE)~FA_READ;				/* Desired access mode, write access or not */
	if (fs->fs_type != 0) {				/* If the volume has been mounted */
		stat = disk_status(fs->pdrv);
		if (!(stat & STA_NOINIT)) {		/* and the physical drive is kept initialized */
			if (!FF_FS_READONLY && mode && (stat & STA_PROTECT)) {	/* Check write protection if needed */
  2123e4:	94803fcc 	andi	r18,r18,255
  2123e8:	90000526 	beq	r18,zero,212400 <mount_volume+0xec>
  2123ec:	1080010c 	andi	r2,r2,4
  2123f0:	10803fcc 	andi	r2,r2,255
  2123f4:	10000226 	beq	r2,zero,212400 <mount_volume+0xec>
	stat = disk_initialize(fs->pdrv);	/* Initialize the volume hosting physical drive */
	if (stat & STA_NOINIT) { 			/* Check if the initialization succeeded */
		return FR_NOT_READY;			/* Failed to initialize due to no medium or hard error */
	}
	if (!FF_FS_READONLY && mode && (stat & STA_PROTECT)) { /* Check disk write protection if needed */
		return FR_WRITE_PROTECTED;
  2123f8:	00800284 	movi	r2,10
  2123fc:	003fe906 	br	2123a4 <mount_volume+0x90>
		stat = disk_status(fs->pdrv);
		if (!(stat & STA_NOINIT)) {		/* and the physical drive is kept initialized */
			if (!FF_FS_READONLY && mode && (stat & STA_PROTECT)) {	/* Check write protection if needed */
				return FR_WRITE_PROTECTED;
			}
			return FR_OK;				/* The filesystem object is already valid */
  212400:	0005883a 	mov	r2,zero
  212404:	003fe706 	br	2123a4 <mount_volume+0x90>
	fs->fs_type = 0;					/* Invalidate the filesystem object */
	stat = disk_initialize(fs->pdrv);	/* Initialize the volume hosting physical drive */
	if (stat & STA_NOINIT) { 			/* Check if the initialization succeeded */
		return FR_NOT_READY;			/* Failed to initialize due to no medium or hard error */
	}
	if (!FF_FS_READONLY && mode && (stat & STA_PROTECT)) { /* Check disk write protection if needed */
  212408:	94803fcc 	andi	r18,r18,255
  21240c:	90000326 	beq	r18,zero,21241c <mount_volume+0x108>
  212410:	1080010c 	andi	r2,r2,4
  212414:	10803fcc 	andi	r2,r2,255
  212418:	103ff71e 	bne	r2,zero,2123f8 <mount_volume+0xe4>
{
	WORD w, sign;
	BYTE b;


	fs->wflag = 0; fs->winsect = (LBA_t)0 - 1;		/* Invaidate window */
  21241c:	00bfffc4 	movi	r2,-1
  212420:	80000105 	stb	zero,4(r16)
  212424:	80800715 	stw	r2,28(r16)
	if (move_window(fs, sect) != FR_OK) return 4;	/* Load the boot sector */
  212428:	8009883a 	mov	r4,r16
  21242c:	000b883a 	mov	r5,zero
  212430:	0210fd00 	call	210fd0 <move_window>
  212434:	10000226 	beq	r2,zero,212440 <mount_volume+0x12c>
	if (SS(fs) > FF_MAX_SS || SS(fs) < FF_MIN_SS || (SS(fs) & (SS(fs) - 1))) return FR_DISK_ERR;
#endif

	/* Find an FAT volume on the hosting drive */
	fmt = find_volume(fs, LD2PT(vol));
	if (fmt == 4) return FR_DISK_ERR;		/* An error occurred in the disk I/O layer */
  212438:	00800044 	movi	r2,1
  21243c:	003fd906 	br	2123a4 <mount_volume+0x90>
  212440:	8009883a 	mov	r4,r16
  212444:	02112100 	call	211210 <check_fs.part.7>
	UINT fmt, i;
	DWORD mbr_pt[4];


	fmt = check_fs(fs, 0);				/* Load sector 0 and check if it is an FAT VBR as SFD format */
	if (fmt != 2 && (fmt >= 3 || part == 0)) return fmt;	/* Returns if it is an FAT VBR as auto scan, not a BS or disk error */
  212448:	00c00084 	movi	r3,2
  21244c:	10c0261e 	bne	r2,r3,2124e8 <mount_volume+0x1d4>

/*-----------------------------------------------------------------------*/
/* Determine logical drive number and mount the volume if needed         */
/*-----------------------------------------------------------------------*/

static FRESULT mount_volume (	/* FR_OK(0): successful, !=0: an error occurred */
  212450:	81407d84 	addi	r5,r16,502
  212454:	d823883a 	mov	r17,sp
  212458:	d809883a 	mov	r4,sp
  21245c:	00807184 	movi	r2,454
		}
		return 3;	/* Not found */
	}
#endif
	if (FF_MULTI_PARTITION && part > 4) return 3;	/* MBR has four primary partitions max (FatFs does not support logical partition) */
	for (i = 0; i < 4; i++) {		/* Load partition offset in the MBR */
  212460:	02408184 	movi	r9,518
		mbr_pt[i] = ld_32(fs->win + MBR_Table + i * SZ_PTE + PTE_StLba);
  212464:	10c00c04 	addi	r3,r2,48
  212468:	80c7883a 	add	r3,r16,r3

static DWORD ld_32 (const BYTE* ptr)	/* Load a 4-byte little-endian word */
{
	DWORD rv;

	rv = ptr[3];
  21246c:	198000c3 	ldbu	r6,3(r3)
	rv = rv << 8 | ptr[2];
  212470:	1a000083 	ldbu	r8,2(r3)
	rv = rv << 8 | ptr[1];
  212474:	19c00043 	ldbu	r7,1(r3)
static DWORD ld_32 (const BYTE* ptr)	/* Load a 4-byte little-endian word */
{
	DWORD rv;

	rv = ptr[3];
	rv = rv << 8 | ptr[2];
  212478:	3006923a 	slli	r3,r6,8
	rv = rv << 8 | ptr[1];
	rv = rv << 8 | ptr[0];
  21247c:	29800003 	ldbu	r6,0(r5)
  212480:	21000104 	addi	r4,r4,4
static DWORD ld_32 (const BYTE* ptr)	/* Load a 4-byte little-endian word */
{
	DWORD rv;

	rv = ptr[3];
	rv = rv << 8 | ptr[2];
  212484:	1a06b03a 	or	r3,r3,r8
	rv = rv << 8 | ptr[1];
  212488:	1806923a 	slli	r3,r3,8
  21248c:	10800404 	addi	r2,r2,16
  212490:	29400404 	addi	r5,r5,16
  212494:	19c6b03a 	or	r3,r3,r7
	rv = rv << 8 | ptr[0];
  212498:	1806923a 	slli	r3,r3,8
  21249c:	30c6b03a 	or	r3,r6,r3
		return 3;	/* Not found */
	}
#endif
	if (FF_MULTI_PARTITION && part > 4) return 3;	/* MBR has four primary partitions max (FatFs does not support logical partition) */
	for (i = 0; i < 4; i++) {		/* Load partition offset in the MBR */
		mbr_pt[i] = ld_32(fs->win + MBR_Table + i * SZ_PTE + PTE_StLba);
  2124a0:	20ffff15 	stw	r3,-4(r4)
		}
		return 3;	/* Not found */
	}
#endif
	if (FF_MULTI_PARTITION && part > 4) return 3;	/* MBR has four primary partitions max (FatFs does not support logical partition) */
	for (i = 0; i < 4; i++) {		/* Load partition offset in the MBR */
  2124a4:	127fef1e 	bne	r2,r9,212464 <mount_volume+0x150>

/*-----------------------------------------------------------------------*/
/* Determine logical drive number and mount the volume if needed         */
/*-----------------------------------------------------------------------*/

static FRESULT mount_volume (	/* FR_OK(0): successful, !=0: an error occurred */
  2124a8:	dc800404 	addi	r18,sp,16
{
	WORD w, sign;
	BYTE b;


	fs->wflag = 0; fs->winsect = (LBA_t)0 - 1;		/* Invaidate window */
  2124ac:	04ffffc4 	movi	r19,-1
		mbr_pt[i] = ld_32(fs->win + MBR_Table + i * SZ_PTE + PTE_StLba);
	}
	i = part ? part - 1 : 0;		/* Table index to find first */
	do {							/* Find an FAT volume */
		fmt = mbr_pt[i] ? check_fs(fs, mbr_pt[i]) : 3;	/* Check if the partition is FAT */
	} while (part == 0 && fmt >= 2 && ++i < 4);
  2124b0:	05000044 	movi	r20,1
  2124b4:	00000206 	br	2124c0 <mount_volume+0x1ac>
  2124b8:	8c400104 	addi	r17,r17,4
  2124bc:	8c800a26 	beq	r17,r18,2124e8 <mount_volume+0x1d4>
	for (i = 0; i < 4; i++) {		/* Load partition offset in the MBR */
		mbr_pt[i] = ld_32(fs->win + MBR_Table + i * SZ_PTE + PTE_StLba);
	}
	i = part ? part - 1 : 0;		/* Table index to find first */
	do {							/* Find an FAT volume */
		fmt = mbr_pt[i] ? check_fs(fs, mbr_pt[i]) : 3;	/* Check if the partition is FAT */
  2124c0:	89400017 	ldw	r5,0(r17)
  2124c4:	008000c4 	movi	r2,3
  2124c8:	283ffb26 	beq	r5,zero,2124b8 <mount_volume+0x1a4>
	WORD w, sign;
	BYTE b;


	fs->wflag = 0; fs->winsect = (LBA_t)0 - 1;		/* Invaidate window */
	if (move_window(fs, sect) != FR_OK) return 4;	/* Load the boot sector */
  2124cc:	8009883a 	mov	r4,r16
{
	WORD w, sign;
	BYTE b;


	fs->wflag = 0; fs->winsect = (LBA_t)0 - 1;		/* Invaidate window */
  2124d0:	80000105 	stb	zero,4(r16)
  2124d4:	84c00715 	stw	r19,28(r16)
	if (move_window(fs, sect) != FR_OK) return 4;	/* Load the boot sector */
  2124d8:	0210fd00 	call	210fd0 <move_window>
  2124dc:	10000826 	beq	r2,zero,212500 <mount_volume+0x1ec>
  2124e0:	00800104 	movi	r2,4
  2124e4:	003ff406 	br	2124b8 <mount_volume+0x1a4>
	if (SS(fs) > FF_MAX_SS || SS(fs) < FF_MIN_SS || (SS(fs) & (SS(fs) - 1))) return FR_DISK_ERR;
#endif

	/* Find an FAT volume on the hosting drive */
	fmt = find_volume(fs, LD2PT(vol));
	if (fmt == 4) return FR_DISK_ERR;		/* An error occurred in the disk I/O layer */
  2124e8:	00c00104 	movi	r3,4
  2124ec:	10ffd226 	beq	r2,r3,212438 <mount_volume+0x124>
	if (fmt >= 2) return FR_NO_FILESYSTEM;	/* No FAT volume is found */
  2124f0:	00c00044 	movi	r3,1
  2124f4:	1880052e 	bgeu	r3,r2,21250c <mount_volume+0x1f8>
  2124f8:	00800344 	movi	r2,13
  2124fc:	003fa906 	br	2123a4 <mount_volume+0x90>
  212500:	8009883a 	mov	r4,r16
  212504:	02112100 	call	211210 <check_fs.part.7>
		mbr_pt[i] = ld_32(fs->win + MBR_Table + i * SZ_PTE + PTE_StLba);
	}
	i = part ? part - 1 : 0;		/* Table index to find first */
	do {							/* Find an FAT volume */
		fmt = mbr_pt[i] ? check_fs(fs, mbr_pt[i]) : 3;	/* Check if the partition is FAT */
	} while (part == 0 && fmt >= 2 && ++i < 4);
  212508:	a0bfeb36 	bltu	r20,r2,2124b8 <mount_volume+0x1a4>
static WORD ld_16 (const BYTE* ptr)	/*	 Load a 2-byte little-endian word */
{
	WORD rv;

	rv = ptr[1];
	rv = rv << 8 | ptr[0];
  21250c:	80c00f03 	ldbu	r3,60(r16)
  212510:	80800ec3 	ldbu	r2,59(r16)

	/* Find an FAT volume on the hosting drive */
	fmt = find_volume(fs, LD2PT(vol));
	if (fmt == 4) return FR_DISK_ERR;		/* An error occurred in the disk I/O layer */
	if (fmt >= 2) return FR_NO_FILESYSTEM;	/* No FAT volume is found */
	bsect = fs->winsect;					/* Volume offset in the hosting physical drive */
  212514:	84400717 	ldw	r17,28(r16)
static WORD ld_16 (const BYTE* ptr)	/*	 Load a 2-byte little-endian word */
{
	WORD rv;

	rv = ptr[1];
	rv = rv << 8 | ptr[0];
  212518:	1806923a 	slli	r3,r3,8
  21251c:	1886b03a 	or	r3,r3,r2
#endif	/* FF_FS_EXFAT */
	{
		DWORD tsect, sysect, fasize, nclst, szbfat;
		WORD nrsv;

		if (ld_16(fs->win + BPB_BytsPerSec) != SS(fs)) return FR_NO_FILESYSTEM;	/* (BPB_BytsPerSec must be equal to the physical sector size) */
  212520:	18ffffcc 	andi	r3,r3,65535
  212524:	18e0001c 	xori	r3,r3,32768
  212528:	18e00004 	addi	r3,r3,-32768
  21252c:	00808004 	movi	r2,512
  212530:	18bff11e 	bne	r3,r2,2124f8 <mount_volume+0x1e4>
static WORD ld_16 (const BYTE* ptr)	/*	 Load a 2-byte little-endian word */
{
	WORD rv;

	rv = ptr[1];
	rv = rv << 8 | ptr[0];
  212534:	84c011c3 	ldbu	r19,71(r16)
  212538:	80801183 	ldbu	r2,70(r16)
  21253c:	9826923a 	slli	r19,r19,8
		DWORD tsect, sysect, fasize, nclst, szbfat;
		WORD nrsv;

		if (ld_16(fs->win + BPB_BytsPerSec) != SS(fs)) return FR_NO_FILESYSTEM;	/* (BPB_BytsPerSec must be equal to the physical sector size) */

		fasize = ld_16(fs->win + BPB_FATSz16);		/* Number of sectors per FAT */
  212540:	98a6b03a 	or	r19,r19,r2
		if (fasize == 0) fasize = ld_32(fs->win + BPB_FATSz32);
  212544:	98000a1e 	bne	r19,zero,212570 <mount_volume+0x25c>

static DWORD ld_32 (const BYTE* ptr)	/* Load a 4-byte little-endian word */
{
	DWORD rv;

	rv = ptr[3];
  212548:	84c015c3 	ldbu	r19,87(r16)
	rv = rv << 8 | ptr[2];
  21254c:	81001583 	ldbu	r4,86(r16)
	rv = rv << 8 | ptr[1];
  212550:	80c01543 	ldbu	r3,85(r16)
static DWORD ld_32 (const BYTE* ptr)	/* Load a 4-byte little-endian word */
{
	DWORD rv;

	rv = ptr[3];
	rv = rv << 8 | ptr[2];
  212554:	9826923a 	slli	r19,r19,8
	rv = rv << 8 | ptr[1];
	rv = rv << 8 | ptr[0];
  212558:	80801503 	ldbu	r2,84(r16)
static DWORD ld_32 (const BYTE* ptr)	/* Load a 4-byte little-endian word */
{
	DWORD rv;

	rv = ptr[3];
	rv = rv << 8 | ptr[2];
  21255c:	9926b03a 	or	r19,r19,r4
	rv = rv << 8 | ptr[1];
  212560:	9826923a 	slli	r19,r19,8
  212564:	98e6b03a 	or	r19,r19,r3
	rv = rv << 8 | ptr[0];
  212568:	9826923a 	slli	r19,r19,8
  21256c:	98a6b03a 	or	r19,r19,r2

		fasize = ld_16(fs->win + BPB_FATSz16);		/* Number of sectors per FAT */
		if (fasize == 0) fasize = ld_32(fs->win + BPB_FATSz32);
		fs->fsize = fasize;

		fs->n_fats = fs->win[BPB_NumFATs];				/* Number of FATs */
  212570:	81401003 	ldbu	r5,64(r16)

		if (ld_16(fs->win + BPB_BytsPerSec) != SS(fs)) return FR_NO_FILESYSTEM;	/* (BPB_BytsPerSec must be equal to the physical sector size) */

		fasize = ld_16(fs->win + BPB_FATSz16);		/* Number of sectors per FAT */
		if (fasize == 0) fasize = ld_32(fs->win + BPB_FATSz32);
		fs->fsize = fasize;
  212574:	84c00615 	stw	r19,24(r16)

		fs->n_fats = fs->win[BPB_NumFATs];				/* Number of FATs */
		if (fs->n_fats != 1 && fs->n_fats != 2) return FR_NO_FILESYSTEM;	/* (Must be 1 or 2) */
  212578:	00c00044 	movi	r3,1
  21257c:	28bfffc4 	addi	r2,r5,-1

		fasize = ld_16(fs->win + BPB_FATSz16);		/* Number of sectors per FAT */
		if (fasize == 0) fasize = ld_32(fs->win + BPB_FATSz32);
		fs->fsize = fasize;

		fs->n_fats = fs->win[BPB_NumFATs];				/* Number of FATs */
  212580:	814000c5 	stb	r5,3(r16)
		if (fs->n_fats != 1 && fs->n_fats != 2) return FR_NO_FILESYSTEM;	/* (Must be 1 or 2) */
  212584:	10803fcc 	andi	r2,r2,255
  212588:	18bfdb36 	bltu	r3,r2,2124f8 <mount_volume+0x1e4>
		fasize *= fs->n_fats;							/* Number of sectors for FAT area */

		fs->csize = fs->win[BPB_SecPerClus];			/* Cluster size */
  21258c:	85c00f43 	ldbu	r23,61(r16)
  212590:	b8803fcc 	andi	r2,r23,255
  212594:	8080028d 	sth	r2,10(r16)
		if (fs->csize == 0 || (fs->csize & (fs->csize - 1))) return FR_NO_FILESYSTEM;	/* (Must be power of 2) */
  212598:	10bfffcc 	andi	r2,r2,65535
  21259c:	103fd626 	beq	r2,zero,2124f8 <mount_volume+0x1e4>
  2125a0:	bdc03fcc 	andi	r23,r23,255
  2125a4:	b8bfffc4 	addi	r2,r23,-1
  2125a8:	15c4703a 	and	r2,r2,r23
  2125ac:	103fd21e 	bne	r2,zero,2124f8 <mount_volume+0x1e4>
static WORD ld_16 (const BYTE* ptr)	/*	 Load a 2-byte little-endian word */
{
	WORD rv;

	rv = ptr[1];
	rv = rv << 8 | ptr[0];
  2125b0:	80c01083 	ldbu	r3,66(r16)
  2125b4:	80801043 	ldbu	r2,65(r16)
  2125b8:	1806923a 	slli	r3,r3,8
  2125bc:	1884b03a 	or	r2,r3,r2
		fasize *= fs->n_fats;							/* Number of sectors for FAT area */

		fs->csize = fs->win[BPB_SecPerClus];			/* Cluster size */
		if (fs->csize == 0 || (fs->csize & (fs->csize - 1))) return FR_NO_FILESYSTEM;	/* (Must be power of 2) */

		fs->n_rootdir = ld_16(fs->win + BPB_RootEntCnt);	/* Number of root directory entries */
  2125c0:	8080020d 	sth	r2,8(r16)
		if (fs->n_rootdir % (SS(fs) / SZDIRE)) return FR_NO_FILESYSTEM;	/* (Must be sector aligned) */
  2125c4:	10c003cc 	andi	r3,r2,15
  2125c8:	183fcb1e 	bne	r3,zero,2124f8 <mount_volume+0x1e4>
static WORD ld_16 (const BYTE* ptr)	/*	 Load a 2-byte little-endian word */
{
	WORD rv;

	rv = ptr[1];
	rv = rv << 8 | ptr[0];
  2125cc:	85401103 	ldbu	r21,68(r16)
  2125d0:	80c010c3 	ldbu	r3,67(r16)
  2125d4:	a82a923a 	slli	r21,r21,8
		if (fs->csize == 0 || (fs->csize & (fs->csize - 1))) return FR_NO_FILESYSTEM;	/* (Must be power of 2) */

		fs->n_rootdir = ld_16(fs->win + BPB_RootEntCnt);	/* Number of root directory entries */
		if (fs->n_rootdir % (SS(fs) / SZDIRE)) return FR_NO_FILESYSTEM;	/* (Must be sector aligned) */

		tsect = ld_16(fs->win + BPB_TotSec16);			/* Number of sectors on the volume */
  2125d8:	a8eab03a 	or	r21,r21,r3
		if (tsect == 0) tsect = ld_32(fs->win + BPB_TotSec32);
  2125dc:	a8000a1e 	bne	r21,zero,212608 <mount_volume+0x2f4>

static DWORD ld_32 (const BYTE* ptr)	/* Load a 4-byte little-endian word */
{
	DWORD rv;

	rv = ptr[3];
  2125e0:	854014c3 	ldbu	r21,83(r16)
	rv = rv << 8 | ptr[2];
  2125e4:	81801483 	ldbu	r6,82(r16)
	rv = rv << 8 | ptr[1];
  2125e8:	81001443 	ldbu	r4,81(r16)
static DWORD ld_32 (const BYTE* ptr)	/* Load a 4-byte little-endian word */
{
	DWORD rv;

	rv = ptr[3];
	rv = rv << 8 | ptr[2];
  2125ec:	a82a923a 	slli	r21,r21,8
	rv = rv << 8 | ptr[1];
	rv = rv << 8 | ptr[0];
  2125f0:	80c01403 	ldbu	r3,80(r16)
static DWORD ld_32 (const BYTE* ptr)	/* Load a 4-byte little-endian word */
{
	DWORD rv;

	rv = ptr[3];
	rv = rv << 8 | ptr[2];
  2125f4:	a9aab03a 	or	r21,r21,r6
	rv = rv << 8 | ptr[1];
  2125f8:	a82a923a 	slli	r21,r21,8
  2125fc:	a92ab03a 	or	r21,r21,r4
	rv = rv << 8 | ptr[0];
  212600:	a82a923a 	slli	r21,r21,8
  212604:	a8eab03a 	or	r21,r21,r3
static WORD ld_16 (const BYTE* ptr)	/*	 Load a 2-byte little-endian word */
{
	WORD rv;

	rv = ptr[1];
	rv = rv << 8 | ptr[0];
  212608:	85000fc3 	ldbu	r20,63(r16)
  21260c:	80c00f83 	ldbu	r3,62(r16)
  212610:	a028923a 	slli	r20,r20,8
  212614:	a0e8b03a 	or	r20,r20,r3

		tsect = ld_16(fs->win + BPB_TotSec16);			/* Number of sectors on the volume */
		if (tsect == 0) tsect = ld_32(fs->win + BPB_TotSec32);

		nrsv = ld_16(fs->win + BPB_RsvdSecCnt);			/* Number of reserved sectors */
		if (nrsv == 0) return FR_NO_FILESYSTEM;			/* (Must not be 0) */
  212618:	a53fffcc 	andi	r20,r20,65535
  21261c:	a03fb626 	beq	r20,zero,2124f8 <mount_volume+0x1e4>

		/* Determine the FAT sub type */
		sysect = nrsv + fasize + fs->n_rootdir / (SS(fs) / SZDIRE);	/* RSV + FAT + DIR */
  212620:	15bfffcc 	andi	r22,r2,65535
  212624:	b024d13a 	srli	r18,r22,4
		if (fasize == 0) fasize = ld_32(fs->win + BPB_FATSz32);
		fs->fsize = fasize;

		fs->n_fats = fs->win[BPB_NumFATs];				/* Number of FATs */
		if (fs->n_fats != 1 && fs->n_fats != 2) return FR_NO_FILESYSTEM;	/* (Must be 1 or 2) */
		fasize *= fs->n_fats;							/* Number of sectors for FAT area */
  212628:	9809883a 	mov	r4,r19
  21262c:	29403fcc 	andi	r5,r5,255
  212630:	021a3580 	call	21a358 <__mulsi3>

		nrsv = ld_16(fs->win + BPB_RsvdSecCnt);			/* Number of reserved sectors */
		if (nrsv == 0) return FR_NO_FILESYSTEM;			/* (Must not be 0) */

		/* Determine the FAT sub type */
		sysect = nrsv + fasize + fs->n_rootdir / (SS(fs) / SZDIRE);	/* RSV + FAT + DIR */
  212634:	9525883a 	add	r18,r18,r20
  212638:	90a5883a 	add	r18,r18,r2
		if (fasize == 0) fasize = ld_32(fs->win + BPB_FATSz32);
		fs->fsize = fasize;

		fs->n_fats = fs->win[BPB_NumFATs];				/* Number of FATs */
		if (fs->n_fats != 1 && fs->n_fats != 2) return FR_NO_FILESYSTEM;	/* (Must be 1 or 2) */
		fasize *= fs->n_fats;							/* Number of sectors for FAT area */
  21263c:	1039883a 	mov	fp,r2
		nrsv = ld_16(fs->win + BPB_RsvdSecCnt);			/* Number of reserved sectors */
		if (nrsv == 0) return FR_NO_FILESYSTEM;			/* (Must not be 0) */

		/* Determine the FAT sub type */
